((lp1
(lp2
S'pid = bff958fb788d474e85c487d3e81f5670'
p3
aS'name = Ast. HSJ-227'
p4
aS'type = SpaceObject'
p5
aS'sit = ORBITING'
p6
aS'landed = False'
p7
aS'landedAt ='
p8
aS'splashed = False'
p9
aS'met = 0.02'
p10
aS'lct = 0.02'
p11
aS'lastUT = -1'
p12
aS'root = 0'
p13
aS'lat = -2.831128922727614'
p14
aS'lon = -178.8888200028762'
p15
aS'alt = 14623623840.829468'
p16
aS'hgt = -1'
p17
aS'nrm = 0,1,0'
p18
aS'rot = -0.298433661,0.402898014,-0.817398846,0.283672005'
p19
aS'CoM = 0,0,0'
p20
aS'stg = 0'
p21
aS'prst = False'
p22
aS'ref = 0'
p23
aS'ctrl = False'
p24
aS'ORBIT'
p25
a(lp26
S'SMA = 15290276560.592478'
p27
aS'ECC = 0.1118777503722161'
p28
aS'INC = 2.8689795676724752'
p29
aS'LPE = 1.9417843381540405'
p30
aS'LAN = 261.78625981023879'
p31
aS'MNA = -0.052750780988759779'
p32
aS'EPH = 2043585.7560839844'
p33
aS'REF = 0'
p34
aaS'PART'
p35
a(lp36
S'name = PotatoRoid'
p37
aS'cid = 0'
p38
aS'uid = 559298752'
p39
aS'mid = 559298752'
p40
aS'launchID = 0'
p41
aS'parent = 0'
p42
aS'position = 0,0,0'
p43
aS'rotation = 0,0,0,1'
p44
aS'mirror = 1,1,1'
p45
aS'symMethod = Radial'
p46
aS'istg = 0'
p47
aS'resPri = 0'
p48
aS'dstg = 0'
p49
aS'sqor = 0'
p50
aS'sepI = 0'
p51
aS'sidx = 0'
p52
aS'attm = 0'
p53
aS'srfN = None, -1'
p54
aS'mass = 150'
p55
aS'shielded = False'
p56
aS'temp = -1'
p57
aS'tempExt = 0'
p58
aS'tempExtUnexp = 0'
p59
aS'expt = 0.100000001'
p60
aS'state = 0'
p61
aS'attached = True'
p62
aS'autostrutMode = Off'
p63
aS'rigidAttachment = False'
p64
aS'flag ='
p65
aS'rTrf ='
p66
aS'modCost = 0'
p67
aaS'ACTIONGROUPS'
p68
a(lp69
aS'DISCOVERY'
p70
a(lp71
S'state = 1'
p72
aS'lastObservedTime = 0.02'
p73
aS'lifetime = 586354.71038818359'
p74
aS'refTime = 1728000'
p75
aS'size = 4'
p76
aaS'FLIGHTPLAN'
p77
a(lp78
aS'CTRLSTATE'
p79
a(lp80
aS'VESSELMODULES'
p81
a(lp82
S'FlightIntegrator'
p83
a(lp84
aaa(lp85
S'pid = 585fc43b9daf4e5d836a24d2ed138400'
p86
aS'name = nickleback'
p87
aS'type = Ship'
p88
aS'sit = ORBITING'
p89
aS'landed = False'
p90
aS'landedAt ='
p91
aS'splashed = False'
p92
aS'met = 158.18278320312839'
p93
aS'lct = 13.599999999999799'
p94
aS'lastUT = 171.78278320312819'
p95
aS'root = 0'
p96
aS'lat = 0.25601762446412235'
p97
aS'lon = -59.295680542766817'
p98
aS'alt = 136417.85773543699'
p99
aS'hgt = -1'
p100
aS'nrm = -0.799908936,-0.0115168244,0.600010931'
p101
aS'rot = 0.537988544,-0.682262659,0.475494266,0.137808383'
p102
aS'CoM = 4.47034836E-07,-1.71279407,-2.14576721E-06'
p103
aS'stg = 0'
p104
aS'prst = False'
p105
aS'ref = 3223546214'
p106
aS'ctrl = True'
p107
aS'cPch = 0.19957'
p108
aS'cHdg = 2.205815'
p109
aS'cMod = 0'
p110
aS'ORBIT'
p111
a(lp112
S'SMA = 767546.89307375881'
p113
aS'ECC = 0.042805700384303723'
p114
aS'INC = 1.6585555792132536'
p115
aS'LPE = 349.42388650316519'
p116
aS'LAN = 24.696730211716101'
p117
aS'MNA = 0.31191757089957145'
p118
aS'EPH = 171.78278320312819'
p119
aS'REF = 1'
p120
aaS'PART'
p121
a(lp122
S'name = mk1pod'
p123
aS'cid = 4294587566'
p124
aS'uid = 3223546214'
p125
aS'mid = 3129111071'
p126
aS'launchID = 1'
p127
aS'parent = 0'
p128
aS'position = 0,0,0'
p129
aS'rotation = 0,0,0,1'
p130
aS'mirror = 1,1,1'
p131
aS'symMethod = Radial'
p132
aS'istg = -1'
p133
aS'resPri = 0'
p134
aS'dstg = 0'
p135
aS'sqor = -1'
p136
aS'sepI = -1'
p137
aS'sidx = -1'
p138
aS'attm = 0'
p139
aS'srfN = , -1'
p140
aS'attN = bottom, 1'
p141
aS'attN = top, -1'
p142
aS'mass = 0.800000012'
p143
aS'shielded = False'
p144
aS'temp = 394.83120847447469'
p145
aS'tempExt = 429.6724017243418'
p146
aS'tempExtUnexp = 4'
p147
aS'expt = 0.5'
p148
aS'state = 0'
p149
aS'attached = True'
p150
aS'autostrutMode = Off'
p151
aS'rigidAttachment = False'
p152
aS'flag = Squad/Flags/default'
p153
aS'rTrf = mk1pod'
p154
aS'modCost = 0'
p155
aS'crew = Jebediah Kerman'
p156
aS'EVENTS'
p157
a(lp158
aS'ACTIONS'
p159
a(lp160
aS'PARTDATA'
p161
a(lp162
aS'MODULE'
p163
a(lp164
S'name = ModuleCommand'
p165
aS'isEnabled = True'
p166
aS'hibernation = False'
p167
aS'hibernateOnWarp = False'
p168
aS'stagingEnabled = True'
p169
aS'EVENTS'
p170
a(lp171
aS'ACTIONS'
p172
a(lp173
S'HibernateToggle'
p174
a(lp175
S'actionGroup = None'
p176
aS'active = False'
p177
aaaS'UPGRADESAPPLIED'
p178
a(lp179
aaS'MODULE'
p180
a(lp181
S'name = ModuleReactionWheel'
p182
aS'isEnabled = True'
p183
aS'actuatorModeCycle = 0'
p184
aS'authorityLimiter = 100'
p185
aS'stateString = Running'
p186
aS'stagingEnabled = True'
p187
aS'WheelState = Active'
p188
aS'EVENTS'
p189
a(lp190
aS'ACTIONS'
p191
a(lp192
S'CycleAction'
p193
a(lp194
S'actionGroup = None'
p195
aaS'Activate'
p196
a(lp197
S'actionGroup = None'
p198
aaS'Deactivate'
p199
a(lp200
S'actionGroup = None'
p201
aaS'Toggle'
p202
a(lp203
S'actionGroup = None'
p204
aaaS'UPGRADESAPPLIED'
p205
a(lp206
aaS'MODULE'
p207
a(lp208
S'name = ModuleColorChanger'
p209
aS'isEnabled = True'
p210
aS'animState = False'
p211
aS'stagingEnabled = True'
p212
aS'EVENTS'
p213
a(lp214
aS'ACTIONS'
p215
a(lp216
S'ToggleAction'
p217
a(lp218
S'actionGroup = Light'
p219
aaaS'UPGRADESAPPLIED'
p220
a(lp221
aaS'MODULE'
p222
a(lp223
S'name = ModuleScienceExperiment'
p224
aS'isEnabled = True'
p225
aS'Deployed = False'
p226
aS'Inoperable = False'
p227
aS'cooldownToGo = 0'
p228
aS'stagingEnabled = True'
p229
aS'EVENTS'
p230
a(lp231
aS'ACTIONS'
p232
a(lp233
S'DeployAction'
p234
a(lp235
S'actionGroup = None'
p236
aaS'ResetAction'
p237
a(lp238
S'actionGroup = None'
p239
aaaS'UPGRADESAPPLIED'
p240
a(lp241
aaS'MODULE'
p242
a(lp243
S'name = ModuleScienceContainer'
p244
aS'isEnabled = True'
p245
aS'stagingEnabled = True'
p246
aS'EVENTS'
p247
a(lp248
aS'ACTIONS'
p249
a(lp250
S'CollectAllAction'
p251
a(lp252
S'actionGroup = None'
p253
aaaS'UPGRADESAPPLIED'
p254
a(lp255
aaS'MODULE'
p256
a(lp257
S'name = FlagDecal'
p258
aS'isEnabled = True'
p259
aS'flagDisplayed = True'
p260
aS'stagingEnabled = True'
p261
aS'EVENTS'
p262
a(lp263
aS'ACTIONS'
p264
a(lp265
aS'UPGRADESAPPLIED'
p266
a(lp267
aaS'MODULE'
p268
a(lp269
S'name = ModuleConductionMultiplier'
p270
aS'isEnabled = True'
p271
aS'stagingEnabled = True'
p272
aS'EVENTS'
p273
a(lp274
aS'ACTIONS'
p275
a(lp276
aS'UPGRADESAPPLIED'
p277
a(lp278
aaS'MODULE'
p279
a(lp280
S'name = ModuleDataTransmitter'
p281
aS'isEnabled = True'
p282
aS'xmitIncomplete = False'
p283
aS'stagingEnabled = True'
p284
aS'canComm = True'
p285
aS'EVENTS'
p286
a(lp287
aS'ACTIONS'
p288
a(lp289
S'StartTransmissionAction'
p290
a(lp291
S'actionGroup = None'
p292
aS'active = False'
p293
aaaS'UPGRADESAPPLIED'
p294
a(lp295
aaS'MODULE'
p296
a(lp297
S'name = ModuleLiftingSurface'
p298
aS'isEnabled = True'
p299
aS'stagingEnabled = True'
p300
aS'EVENTS'
p301
a(lp302
aS'ACTIONS'
p303
a(lp304
aS'UPGRADESAPPLIED'
p305
a(lp306
aaS'MODULE'
p307
a(lp308
S'name = ModuleTripLogger'
p309
aS'isEnabled = True'
p310
aS'stagingEnabled = True'
p311
aS'EVENTS'
p312
a(lp313
aS'ACTIONS'
p314
a(lp315
aS'Log'
p316
a(lp317
S'flight = 0'
p318
aS'0 = Flight,Kerbin'
p319
aS'0 = Land,Kerbin'
p320
aS'0 = Suborbit,Kerbin'
p321
aS'0 = Orbit,Kerbin'
p322
aaS'UPGRADESAPPLIED'
p323
a(lp324
aaS'RESOURCE'
p325
a(lp326
S'name = ElectricCharge'
p327
aS'amount = 50'
p328
aS'maxAmount = 50'
p329
aS'flowState = True'
p330
aS'isTweakable = True'
p331
aS'hideFlow = False'
p332
aS'isVisible = True'
p333
aS'flowMode = Both'
p334
aaS'RESOURCE'
p335
a(lp336
S'name = MonoPropellant'
p337
aS'amount = 10'
p338
aS'maxAmount = 10'
p339
aS'flowState = True'
p340
aS'isTweakable = True'
p341
aS'hideFlow = False'
p342
aS'isVisible = True'
p343
aS'flowMode = Both'
p344
aaaS'PART'
p345
a(lp346
S'name = fuelTank'
p347
aS'cid = 4294579144'
p348
aS'uid = 3018322636'
p349
aS'mid = 3129111071'
p350
aS'launchID = 1'
p351
aS'parent = 0'
p352
aS'position = 0,-1.3707275390625,0'
p353
aS'rotation = 0,0,0,1'
p354
aS'mirror = 1,1,1'
p355
aS'symMethod = Radial'
p356
aS'istg = -1'
p357
aS'resPri = 0'
p358
aS'dstg = 0'
p359
aS'sqor = -1'
p360
aS'sepI = -1'
p361
aS'sidx = -1'
p362
aS'attm = 0'
p363
aS'srfN = srfAttach, -1'
p364
aS'attN = top, 0'
p365
aS'attN = bottom, 2'
p366
aS'mass = 0.25'
p367
aS'shielded = False'
p368
aS'temp = 411.22603210708638'
p369
aS'tempExt = 446.07913333017274'
p370
aS'tempExtUnexp = 4'
p371
aS'expt = 0.5'
p372
aS'state = 0'
p373
aS'attached = True'
p374
aS'autostrutMode = Off'
p375
aS'rigidAttachment = False'
p376
aS'flag = Squad/Flags/default'
p377
aS'rTrf = fuelTank'
p378
aS'modCost = 0'
p379
aS'EVENTS'
p380
a(lp381
aS'ACTIONS'
p382
a(lp383
aS'PARTDATA'
p384
a(lp385
aS'RESOURCE'
p386
a(lp387
S'name = LiquidFuel'
p388
aS'amount = 180'
p389
aS'maxAmount = 180'
p390
aS'flowState = True'
p391
aS'isTweakable = True'
p392
aS'hideFlow = False'
p393
aS'isVisible = True'
p394
aS'flowMode = Both'
p395
aaS'RESOURCE'
p396
a(lp397
S'name = Oxidizer'
p398
aS'amount = 220'
p399
aS'maxAmount = 220'
p400
aS'flowState = True'
p401
aS'isTweakable = True'
p402
aS'hideFlow = False'
p403
aS'isVisible = True'
p404
aS'flowMode = Both'
p405
aaaS'PART'
p406
a(lp407
S'name = liquidEngine2'
p408
aS'cid = 4294570748'
p409
aS'uid = 3866965430'
p410
aS'mid = 3129111071'
p411
aS'launchID = 1'
p412
aS'parent = 1'
p413
aS'position = 0,-3.185053825378418,0'
p414
aS'rotation = 0,0,0,1'
p415
aS'mirror = 1,1,1'
p416
aS'symMethod = Radial'
p417
aS'istg = 0'
p418
aS'resPri = 0'
p419
aS'dstg = 0'
p420
aS'sqor = 0'
p421
aS'sepI = -1'
p422
aS'sidx = 0'
p423
aS'attm = 0'
p424
aS'srfN = , -1'
p425
aS'attN = top, 1'
p426
aS'attN = bottom, -1'
p427
aS'mass = 1.5'
p428
aS'shielded = False'
p429
aS'temp = 561.39308607860369'
p430
aS'tempExt = 510.50967642992356'
p431
aS'tempExtUnexp = 4'
p432
aS'expt = 0.5'
p433
aS'state = 1'
p434
aS'attached = True'
p435
aS'autostrutMode = Off'
p436
aS'rigidAttachment = False'
p437
aS'flag = Squad/Flags/default'
p438
aS'rTrf = liquidEngine2'
p439
aS'modCost = 0'
p440
aS'EVENTS'
p441
a(lp442
aS'ACTIONS'
p443
a(lp444
aS'PARTDATA'
p445
a(lp446
aS'MODULE'
p447
a(lp448
S'name = ModuleEngines'
p449
aS'isEnabled = True'
p450
aS'staged = True'
p451
aS'flameout = False'
p452
aS'EngineIgnited = True'
p453
aS'engineShutdown = False'
p454
aS'currentThrottle = 0'
p455
aS'thrustPercentage = 100'
p456
aS'manuallyOverridden = False'
p457
aS'stagingEnabled = True'
p458
aS'EVENTS'
p459
a(lp460
aS'ACTIONS'
p461
a(lp462
S'OnAction'
p463
a(lp464
S'actionGroup = None'
p465
aaS'ShutdownAction'
p466
a(lp467
S'actionGroup = None'
p468
aaS'ActivateAction'
p469
a(lp470
S'actionGroup = None'
p471
aaaS'UPGRADESAPPLIED'
p472
a(lp473
aaS'MODULE'
p474
a(lp475
S'name = ModuleJettison'
p476
aS'isEnabled = True'
p477
aS'isJettisoned = True'
p478
aS'shroudHideOverride = False'
p479
aS'stagingEnabled = True'
p480
aS'EVENTS'
p481
a(lp482
aS'ACTIONS'
p483
a(lp484
S'JettisonAction'
p485
a(lp486
S'actionGroup = None'
p487
aaaS'UPGRADESAPPLIED'
p488
a(lp489
aaS'MODULE'
p490
a(lp491
S'name = ModuleGimbal'
p492
aS'isEnabled = True'
p493
aS'gimbalLock = False'
p494
aS'gimbalLimiter = 100'
p495
aS'currentShowToggles = False'
p496
aS'enableYaw = True'
p497
aS'enablePitch = True'
p498
aS'enableRoll = True'
p499
aS'gimbalActive = True'
p500
aS'stagingEnabled = True'
p501
aS'EVENTS'
p502
a(lp503
aS'ACTIONS'
p504
a(lp505
S'ToggleAction'
p506
a(lp507
S'actionGroup = None'
p508
aaS'LockAction'
p509
a(lp510
S'actionGroup = None'
p511
aaS'FreeAction'
p512
a(lp513
S'actionGroup = None'
p514
aaS'TogglePitchAction'
p515
a(lp516
S'actionGroup = None'
p517
aaS'ToggleYawAction'
p518
a(lp519
S'actionGroup = None'
p520
aaS'ToggleRollAction'
p521
a(lp522
S'actionGroup = None'
p523
aaaS'UPGRADESAPPLIED'
p524
a(lp525
aaS'MODULE'
p526
a(lp527
S'name = FXModuleAnimateThrottle'
p528
aS'isEnabled = True'
p529
aS'animState = 0.4013789'
p530
aS'stagingEnabled = True'
p531
aS'EVENTS'
p532
a(lp533
aS'ACTIONS'
p534
a(lp535
aS'UPGRADESAPPLIED'
p536
a(lp537
aaS'MODULE'
p538
a(lp539
S'name = ModuleAlternator'
p540
aS'isEnabled = True'
p541
aS'stagingEnabled = True'
p542
aS'EVENTS'
p543
a(lp544
aS'ACTIONS'
p545
a(lp546
aS'UPGRADESAPPLIED'
p547
a(lp548
aaS'MODULE'
p549
a(lp550
S'name = ModuleSurfaceFX'
p551
aS'isEnabled = True'
p552
aS'stagingEnabled = True'
p553
aS'EVENTS'
p554
a(lp555
aS'ACTIONS'
p556
a(lp557
aS'UPGRADESAPPLIED'
p558
a(lp559
aaS'MODULE'
p560
a(lp561
S'name = ModuleTestSubject'
p562
aS'isEnabled = True'
p563
aS'stagingEnabled = True'
p564
aS'EVENTS'
p565
a(lp566
aS'ACTIONS'
p567
a(lp568
aS'UPGRADESAPPLIED'
p569
a(lp570
aaaS'ACTIONGROUPS'
p571
a(lp572
S'Stage = True, 15.2199999999998'
p573
aS'Gear = False, 0'
p574
aS'Light = False, 0'
p575
aS'RCS = False, 0'
p576
aS'SAS = True, 78.8732861328109'
p577
aS'Brakes = False, 0'
p578
aS'Abort = False, 0'
p579
aS'Custom01 = False, 0'
p580
aS'Custom02 = False, 0'
p581
aS'Custom03 = False, 0'
p582
aS'Custom04 = False, 0'
p583
aS'Custom05 = False, 0'
p584
aS'Custom06 = False, 0'
p585
aS'Custom07 = False, 0'
p586
aS'Custom08 = False, 0'
p587
aS'Custom09 = False, 0'
p588
aS'Custom10 = False, 0'
p589
aaS'DISCOVERY'
p590
a(lp591
S'state = -1'
p592
aS'lastObservedTime = 0'
p593
aS'lifetime = Infinity'
p594
aS'refTime = Infinity'
p595
aS'size = 2'
p596
aaS'FLIGHTPLAN'
p597
a(lp598
aS'CTRLSTATE'
p599
a(lp600
S'pitch = 0.0222561825'
p601
aS'yaw = -0.00294211344'
p602
aS'roll = -0.000633028569'
p603
aS'trimPitch = 0'
p604
aS'trimYaw = 0'
p605
aS'trimRoll = 0'
p606
aS'mainThrottle = 0'
p607
aaS'VESSELMODULES'
p608
a(lp609
S'FlightIntegrator'
p610
a(lp611
aS'CommNetVessel'
p612
a(lp613
S'controlState = KerbalFull'
p614
aS'canComm = True'
p615
aaaa(lp616
S'pid = 8f7e1eaf66ac470ab6b5583e17117740'
p617
aS'name = Ast. ZME-730'
p618
aS'type = SpaceObject'
p619
aS'sit = ORBITING'
p620
aS'landed = False'
p621
aS'landedAt ='
p622
aS'splashed = False'
p623
aS'met = 38.662597656249282'
p624
aS'lct = 38.662597656249282'
p625
aS'lastUT = -1'
p626
aS'root = 0'
p627
aS'lat = -0.035042397448956722'
p628
aS'lon = -36.962296748842718'
p629
aS'alt = 1359673237000.4695'
p630
aS'hgt = -1'
p631
aS'nrm = 0,1,0'
p632
aS'rot = -0.79687947,-0.317237943,-0.437005073,0.270868361'
p633
aS'CoM = 0,0,0'
p634
aS'stg = 0'
p635
aS'prst = False'
p636
aS'ref = 0'
p637
aS'ctrl = False'
p638
aS'ORBIT'
p639
a(lp640
S'SMA = -8978959582.5592861'
p641
aS'ECC = 152.43731745572177'
p642
aS'INC = 11.795076978363742'
p643
aS'LPE = 358.87966460441089'
p644
aS'LAN = 323.23773286867356'
p645
aS'MNA = 2.9581864121099617'
p646
aS'EPH = 3664457.4370117188'
p647
aS'REF = 0'
p648
aaS'PART'
p649
a(lp650
S'name = PotatoRoid'
p651
aS'cid = 0'
p652
aS'uid = 1246368301'
p653
aS'mid = 1246368301'
p654
aS'launchID = 0'
p655
aS'parent = 0'
p656
aS'position = 0,0,0'
p657
aS'rotation = 0,0,0,1'
p658
aS'mirror = 1,1,1'
p659
aS'symMethod = Radial'
p660
aS'istg = 0'
p661
aS'resPri = 0'
p662
aS'dstg = 0'
p663
aS'sqor = 0'
p664
aS'sepI = 0'
p665
aS'sidx = 0'
p666
aS'attm = 0'
p667
aS'srfN = None, -1'
p668
aS'mass = 150'
p669
aS'shielded = False'
p670
aS'temp = -1'
p671
aS'tempExt = 0'
p672
aS'tempExtUnexp = 0'
p673
aS'expt = 0.100000001'
p674
aS'state = 0'
p675
aS'attached = True'
p676
aS'autostrutMode = Off'
p677
aS'rigidAttachment = False'
p678
aS'flag ='
p679
aS'rTrf ='
p680
aS'modCost = 0'
p681
aaS'ACTIONGROUPS'
p682
a(lp683
aS'DISCOVERY'
p684
a(lp685
S'state = 1'
p686
aS'lastObservedTime = 38.662597656249282'
p687
aS'lifetime = 257694.06280517578'
p688
aS'refTime = 1728000'
p689
aS'size = 0'
p690
aaS'FLIGHTPLAN'
p691
a(lp692
aS'CTRLSTATE'
p693
a(lp694
aS'VESSELMODULES'
p695
a(lp696
S'FlightIntegrator'
p697
a(lp698
aaa(lp699
S'pid = f1fff484708546e3ad59bbb56bfb4c9a'
p700
aS'name = Ast. VBG-392'
p701
aS'type = SpaceObject'
p702
aS'sit = ORBITING'
p703
aS'landed = False'
p704
aS'landedAt ='
p705
aS'splashed = False'
p706
aS'met = 54.743574218750432'
p707
aS'lct = 54.743574218750432'
p708
aS'lastUT = -1'
p709
aS'root = 0'
p710
aS'lat = -0.0050355604821789891'
p711
aS'lon = -97.610059826425982'
p712
aS'alt = 1359547936732.2002'
p713
aS'hgt = -1'
p714
aS'nrm = 0,1,0'
p715
aS'rot = -0.777445734,-0.026824668,0.591077328,0.213274792'
p716
aS'CoM = 0,0,0'
p717
aS'stg = 0'
p718
aS'prst = False'
p719
aS'ref = 0'
p720
aS'ctrl = False'
p721
aS'ORBIT'
p722
a(lp723
S'SMA = -9093597089.285017'
p724
aS'ECC = 150.20025610845298'
p725
aS'INC = 2.6837590146031256'
p726
aS'LPE = 356.04620229015137'
p727
aS'LAN = 262.54298581945176'
p728
aS'MNA = 10.227944389845179'
p729
aS'EPH = 2112440.3820019532'
p730
aS'REF = 0'
p731
aaS'PART'
p732
a(lp733
S'name = PotatoRoid'
p734
aS'cid = 0'
p735
aS'uid = 706496135'
p736
aS'mid = 706496135'
p737
aS'launchID = 0'
p738
aS'parent = 0'
p739
aS'position = 0,0,0'
p740
aS'rotation = 0,0,0,1'
p741
aS'mirror = 1,1,1'
p742
aS'symMethod = Radial'
p743
aS'istg = 0'
p744
aS'resPri = 0'
p745
aS'dstg = 0'
p746
aS'sqor = 0'
p747
aS'sepI = 0'
p748
aS'sidx = 0'
p749
aS'attm = 0'
p750
aS'srfN = None, -1'
p751
aS'mass = 150'
p752
aS'shielded = False'
p753
aS'temp = -1'
p754
aS'tempExt = 0'
p755
aS'tempExtUnexp = 0'
p756
aS'expt = 0.100000001'
p757
aS'state = 0'
p758
aS'attached = True'
p759
aS'autostrutMode = Off'
p760
aS'rigidAttachment = False'
p761
aS'flag ='
p762
aS'rTrf ='
p763
aS'modCost = 0'
p764
aaS'ACTIONGROUPS'
p765
a(lp766
aS'DISCOVERY'
p767
a(lp768
S'state = 1'
p769
aS'lastObservedTime = 54.743574218750432'
p770
aS'lifetime = 1050532.8552246094'
p771
aS'refTime = 1728000'
p772
aS'size = 0'
p773
aaS'FLIGHTPLAN'
p774
a(lp775
aS'CTRLSTATE'
p776
a(lp777
aS'VESSELMODULES'
p778
a(lp779
S'FlightIntegrator'
p780
a(lp781
aaa(lp782
S'pid = b6141b8d83fc4acaa15553b4ed5a0e5e'
p783
aS'name = Ast. QOR-319'
p784
aS'type = SpaceObject'
p785
aS'sit = ORBITING'
p786
aS'landed = False'
p787
aS'landedAt ='
p788
aS'splashed = False'
p789
aS'met = 99.75574707030917'
p790
aS'lct = 99.75574707030917'
p791
aS'lastUT = -1'
p792
aS'root = 0'
p793
aS'lat = 1.1863208631986966'
p794
aS'lon = -176.13577364624382'
p795
aS'alt = 14439107086.172791'
p796
aS'hgt = -1'
p797
aS'nrm = 0,1,0'
p798
aS'rot = 0.7070629,-0.116868779,0.111754648,0.688414574'
p799
aS'CoM = 0,0,0'
p800
aS'stg = 0'
p801
aS'prst = False'
p802
aS'ref = 0'
p803
aS'ctrl = False'
p804
aS'ORBIT'
p805
a(lp806
S'SMA = 14365607545.921696'
p807
aS'ECC = 0.061087906901313702'
p808
aS'INC = 1.1910504985083441'
p809
aS'LPE = 210.75549593527245'
p810
aS'LAN = 88.838867653395539'
p811
aS'MNA = -0.47988967495075796'
p812
aS'EPH = 2268163.0369970705'
p813
aS'REF = 0'
p814
aaS'PART'
p815
a(lp816
S'name = PotatoRoid'
p817
aS'cid = 0'
p818
aS'uid = 311545085'
p819
aS'mid = 311545085'
p820
aS'launchID = 0'
p821
aS'parent = 0'
p822
aS'position = 0,0,0'
p823
aS'rotation = 0,0,0,1'
p824
aS'mirror = 1,1,1'
p825
aS'symMethod = Radial'
p826
aS'istg = 0'
p827
aS'resPri = 0'
p828
aS'dstg = 0'
p829
aS'sqor = 0'
p830
aS'sepI = 0'
p831
aS'sidx = 0'
p832
aS'attm = 0'
p833
aS'srfN = None, -1'
p834
aS'mass = 150'
p835
aS'shielded = False'
p836
aS'temp = -1'
p837
aS'tempExt = 0'
p838
aS'tempExtUnexp = 0'
p839
aS'expt = 0.100000001'
p840
aS'state = 0'
p841
aS'attached = True'
p842
aS'autostrutMode = Off'
p843
aS'rigidAttachment = False'
p844
aS'flag ='
p845
aS'rTrf ='
p846
aS'modCost = 0'
p847
aaS'ACTIONGROUPS'
p848
a(lp849
aS'DISCOVERY'
p850
a(lp851
S'state = 1'
p852
aS'lastObservedTime = 99.75574707030917'
p853
aS'lifetime = 218076.21002197266'
p854
aS'refTime = 1728000'
p855
aS'size = 3'
p856
aaS'FLIGHTPLAN'
p857
a(lp858
aS'CTRLSTATE'
p859
a(lp860
aS'VESSELMODULES'
p861
a(lp862
S'FlightIntegrator'
p863
a(lp864
aaa(lp865
S'pid = 7c9feb5d7cb14ac4a36fa42087bde1d0'
p866
aS'name = Ast. QPK-897'
p867
aS'type = SpaceObject'
p868
aS'sit = ORBITING'
p869
aS'landed = False'
p870
aS'landedAt ='
p871
aS'splashed = False'
p872
aS'met = 107.35574707030901'
p873
aS'lct = 107.35574707030901'
p874
aS'lastUT = -1'
p875
aS'root = 0'
p876
aS'lat = -0.16703111898226525'
p877
aS'lon = -153.16257361717345'
p878
aS'alt = 17430708999.131039'
p879
aS'hgt = -1'
p880
aS'nrm = 0,1,0'
p881
aS'rot = -0.744746089,0.418519944,-0.339513779,0.393604815'
p882
aS'CoM = 0,0,0'
p883
aS'stg = 0'
p884
aS'prst = False'
p885
aS'ref = 0'
p886
aS'ctrl = False'
p887
aS'ORBIT'
p888
a(lp889
S'SMA = 15838487212.86566'
p890
aS'ECC = 0.14504744134825645'
p891
aS'INC = 0.41683271116191467'
p892
aS'LPE = 352.07943158924024'
p893
aS'LAN = 3.3043765603196675'
p894
aS'MNA = -0.14054520639739337'
p895
aS'EPH = 4204028.4494970702'
p896
aS'REF = 0'
p897
aaS'PART'
p898
a(lp899
S'name = PotatoRoid'
p900
aS'cid = 0'
p901
aS'uid = 1847971024'
p902
aS'mid = 1847971024'
p903
aS'launchID = 0'
p904
aS'parent = 0'
p905
aS'position = 0,0,0'
p906
aS'rotation = 0,0,0,1'
p907
aS'mirror = 1,1,1'
p908
aS'symMethod = Radial'
p909
aS'istg = 0'
p910
aS'resPri = 0'
p911
aS'dstg = 0'
p912
aS'sqor = 0'
p913
aS'sepI = 0'
p914
aS'sidx = 0'
p915
aS'attm = 0'
p916
aS'srfN = None, -1'
p917
aS'mass = 150'
p918
aS'shielded = False'
p919
aS'temp = -1'
p920
aS'tempExt = 0'
p921
aS'tempExtUnexp = 0'
p922
aS'expt = 0.100000001'
p923
aS'state = 0'
p924
aS'attached = True'
p925
aS'autostrutMode = Off'
p926
aS'rigidAttachment = False'
p927
aS'flag ='
p928
aS'rTrf ='
p929
aS'modCost = 0'
p930
aaS'ACTIONGROUPS'
p931
a(lp932
aS'DISCOVERY'
p933
a(lp934
S'state = 1'
p935
aS'lastObservedTime = 107.35574707030901'
p936
aS'lifetime = 433523.73504638672'
p937
aS'refTime = 1728000'
p938
aS'size = 2'
p939
aaS'FLIGHTPLAN'
p940
a(lp941
aS'CTRLSTATE'
p942
a(lp943
aS'VESSELMODULES'
p944
a(lp945
S'FlightIntegrator'
p946
a(lp947
aaa(lp948
S'pid = 84a954282a0e42c0b19100a4be5ad869'
p949
aS'name = Ast. NPC-068'
p950
aS'type = SpaceObject'
p951
aS'sit = ORBITING'
p952
aS'landed = False'
p953
aS'landedAt ='
p954
aS'splashed = False'
p955
aS'met = 114.95574707030885'
p956
aS'lct = 114.95574707030885'
p957
aS'lastUT = -1'
p958
aS'root = 0'
p959
aS'lat = -0.28804508869310852'
p960
aS'lon = -176.61682049131213'
p961
aS'alt = 14719625482.721424'
p962
aS'hgt = -1'
p963
aS'nrm = 0,1,0'
p964
aS'rot = -0.45795247,-0.650354266,-0.055481337,0.603523612'
p965
aS'CoM = 0,0,0'
p966
aS'stg = 0'
p967
aS'prst = False'
p968
aS'ref = 0'
p969
aS'ctrl = False'
p970
aS'ORBIT'
p971
a(lp972
S'SMA = 14808528259.801758'
p973
aS'ECC = 0.080132769979125551'
p974
aS'INC = 0.28978807222460951'
p975
aS'LPE = 6.6018779142823361'
p976
aS'LAN = 279.76629664604405'
p977
aS'MNA = 0.087030471521318639'
p978
aS'EPH = 2870437.0993017578'
p979
aS'REF = 0'
p980
aaS'PART'
p981
a(lp982
S'name = PotatoRoid'
p983
aS'cid = 0'
p984
aS'uid = 1955245560'
p985
aS'mid = 1955245560'
p986
aS'launchID = 0'
p987
aS'parent = 0'
p988
aS'position = 0,0,0'
p989
aS'rotation = 0,0,0,1'
p990
aS'mirror = 1,1,1'
p991
aS'symMethod = Radial'
p992
aS'istg = 0'
p993
aS'resPri = 0'
p994
aS'dstg = 0'
p995
aS'sqor = 0'
p996
aS'sepI = 0'
p997
aS'sidx = 0'
p998
aS'attm = 0'
p999
aS'srfN = None, -1'
p1000
aS'mass = 150'
p1001
aS'shielded = False'
p1002
aS'temp = -1'
p1003
aS'tempExt = 0'
p1004
aS'tempExtUnexp = 0'
p1005
aS'expt = 0.100000001'
p1006
aS'state = 0'
p1007
aS'attached = True'
p1008
aS'autostrutMode = Off'
p1009
aS'rigidAttachment = False'
p1010
aS'flag ='
p1011
aS'rTrf ='
p1012
aS'modCost = 0'
p1013
aaS'ACTIONGROUPS'
p1014
a(lp1015
aS'DISCOVERY'
p1016
a(lp1017
S'state = 1'
p1018
aS'lastObservedTime = 114.95574707030885'
p1019
aS'lifetime = 1553548.9196777344'
p1020
aS'refTime = 1728000'
p1021
aS'size = 2'
p1022
aaS'FLIGHTPLAN'
p1023
a(lp1024
aS'CTRLSTATE'
p1025
a(lp1026
aS'VESSELMODULES'
p1027
a(lp1028
S'FlightIntegrator'
p1029
a(lp1030
aaa(lp1031
S'pid = e85d8e64844f48c4b8da26fd2715eec5'
p1032
aS'name = Ast. RWZ-283'
p1033
aS'type = SpaceObject'
p1034
aS'sit = ORBITING'
p1035
aS'landed = False'
p1036
aS'landedAt ='
p1037
aS'splashed = False'
p1038
aS'met = 141.59574707031069'
p1039
aS'lct = 141.59574707031069'
p1040
aS'lastUT = -1'
p1041
aS'root = 0'
p1042
aS'lat = -0.91723715429553698'
p1043
aS'lon = -153.61501947825798'
p1044
aS'alt = 18836288279.74091'
p1045
aS'hgt = -1'
p1046
aS'nrm = 0,1,0'
p1047
aS'rot = -0.0947895348,0.71505928,0.202702522,0.662281513'
p1048
aS'CoM = 0,0,0'
p1049
aS'stg = 0'
p1050
aS'prst = False'
p1051
aS'ref = 0'
p1052
aS'ctrl = False'
p1053
aS'ORBIT'
p1054
a(lp1055
S'SMA = 17252079173.839767'
p1056
aS'ECC = 0.2095837467083336'
p1057
aS'INC = 1.2149346744623877'
p1058
aS'LPE = 359.60246778944378'
p1059
aS'LAN = 337.48462965809301'
p1060
aS'MNA = 0.06324701321364512'
p1061
aS'EPH = 4164022.7969189454'
p1062
aS'REF = 0'
p1063
aaS'PART'
p1064
a(lp1065
S'name = PotatoRoid'
p1066
aS'cid = 0'
p1067
aS'uid = 160514899'
p1068
aS'mid = 160514899'
p1069
aS'launchID = 0'
p1070
aS'parent = 0'
p1071
aS'position = 0,0,0'
p1072
aS'rotation = 0,0,0,1'
p1073
aS'mirror = 1,1,1'
p1074
aS'symMethod = Radial'
p1075
aS'istg = 0'
p1076
aS'resPri = 0'
p1077
aS'dstg = 0'
p1078
aS'sqor = 0'
p1079
aS'sepI = 0'
p1080
aS'sidx = 0'
p1081
aS'attm = 0'
p1082
aS'srfN = None, -1'
p1083
aS'mass = 150'
p1084
aS'shielded = False'
p1085
aS'temp = -1'
p1086
aS'tempExt = 0'
p1087
aS'tempExtUnexp = 0'
p1088
aS'expt = 0.100000001'
p1089
aS'state = 0'
p1090
aS'attached = True'
p1091
aS'autostrutMode = Off'
p1092
aS'rigidAttachment = False'
p1093
aS'flag ='
p1094
aS'rTrf ='
p1095
aS'modCost = 0'
p1096
aaS'ACTIONGROUPS'
p1097
a(lp1098
aS'DISCOVERY'
p1099
a(lp1100
S'state = 1'
p1101
aS'lastObservedTime = 141.59574707031069'
p1102
aS'lifetime = 366686.41662597656'
p1103
aS'refTime = 1728000'
p1104
aS'size = 2'
p1105
aaS'FLIGHTPLAN'
p1106
a(lp1107
aS'CTRLSTATE'
p1108
a(lp1109
aS'VESSELMODULES'
p1110
a(lp1111
S'FlightIntegrator'
p1112
a(lp1113
aaa(lp1114
S'pid = 1c5ccabb648049ab90089196a10b0307'
p1115
aS'name = Ast. HSJ-227'
p1116
aS'type = SpaceObject'
p1117
aS'sit = ORBITING'
p1118
aS'landed = False'
p1119
aS'landedAt ='
p1120
aS'splashed = False'
p1121
aS'met = 0'
p1122
aS'lct = 0'
p1123
aS'lastUT = -1'
p1124
aS'root = 0'
p1125
aS'lat = -2.8357661281511644'
p1126
aS'lon = -179.33417525694128'
p1127
aS'alt = 14583537930.528633'
p1128
aS'hgt = -1'
p1129
aS'nrm = 0,1,0'
p1130
aS'rot = -0.298433661,0.402898014,-0.817398846,0.283672005'
p1131
aS'CoM = 0,0,0'
p1132
aS'stg = 0'
p1133
aS'prst = False'
p1134
aS'ref = 0'
p1135
aS'ctrl = False'
p1136
aS'ORBIT'
p1137
a(lp1138
S'SMA = 15222247069.286673'
p1139
aS'ECC = 0.10814444071705578'
p1140
aS'INC = 2.8734672638581857'
p1141
aS'LPE = 2.1643544295990473'
p1142
aS'LAN = 261.7680489419314'
p1143
aS'MNA = -0.056248024626786852'
p1144
aS'EPH = 2043585.7360839844'
p1145
aS'REF = 0'
p1146
aaS'PART'
p1147
a(lp1148
S'name = PotatoRoid'
p1149
aS'cid = 0'
p1150
aS'uid = 559298752'
p1151
aS'mid = 559298752'
p1152
aS'launchID = 0'
p1153
aS'parent = 0'
p1154
aS'position = 0,0,0'
p1155
aS'rotation = 0,0,0,1'
p1156
aS'mirror = 1,1,1'
p1157
aS'symMethod = Radial'
p1158
aS'istg = 0'
p1159
aS'resPri = 0'
p1160
aS'dstg = 0'
p1161
aS'sqor = 0'
p1162
aS'sepI = 0'
p1163
aS'sidx = 0'
p1164
aS'attm = 0'
p1165
aS'srfN = None, -1'
p1166
aS'mass = 150'
p1167
aS'shielded = False'
p1168
aS'temp = -1'
p1169
aS'tempExt = 0'
p1170
aS'tempExtUnexp = 0'
p1171
aS'expt = 0.100000001'
p1172
aS'state = 0'
p1173
aS'attached = True'
p1174
aS'autostrutMode = Off'
p1175
aS'rigidAttachment = False'
p1176
aS'flag ='
p1177
aS'rTrf ='
p1178
aS'modCost = 0'
p1179
aaS'ACTIONGROUPS'
p1180
a(lp1181
aS'DISCOVERY'
p1182
a(lp1183
S'state = 1'
p1184
aS'lastObservedTime = 0'
p1185
aS'lifetime = 586354.71038818359'
p1186
aS'refTime = 1728000'
p1187
aS'size = 4'
p1188
aaS'FLIGHTPLAN'
p1189
a(lp1190
aS'CTRLSTATE'
p1191
a(lp1192
aS'VESSELMODULES'
p1193
a(lp1194
S'FlightIntegrator'
p1195
a(lp1196
aaa(lp1197
S'pid = e2ff139060074e17b550e130d8318da9'
p1198
aS'name = CASHMONEY'
p1199
aS'type = Ship'
p1200
aS'sit = ORBITING'
p1201
aS'landed = False'
p1202
aS'landedAt ='
p1203
aS'splashed = False'
p1204
aS'met = 87.799999999996828'
p1205
aS'lct = 15.539999999999758'
p1206
aS'lastUT = 103.33999999999658'
p1207
aS'root = 0'
p1208
aS'lat = -0.83755783896056435'
p1209
aS'lon = -57.222483766772775'
p1210
aS'alt = 315540.24975679617'
p1211
aS'hgt = -1'
p1212
aS'nrm = 0.789020061,-0.614283204,0.0101925135'
p1213
aS'rot = 0.472040802,-0.531538963,-0.512021482,-0.482159644'
p1214
aS'CoM = 9.53674316E-07,-3.00950789,1.07288361E-06'
p1215
aS'stg = 0'
p1216
aS'prst = False'
p1217
aS'ref = 2249958345'
p1218
aS'ctrl = True'
p1219
aS'cPch ='
p1220
aS'cHdg ='
p1221
aS'cMod = 0'
p1222
aS'ORBIT'
p1223
a(lp1224
S'SMA = 1149912.6657282463'
p1225
aS'ECC = 0.22309386425321912'
p1226
aS'INC = 1.3075881227368231'
p1227
aS'LPE = 249.69330488800367'
p1228
aS'LAN = 174.67687543758291'
p1229
aS'MNA = -0.32805445595102783'
p1230
aS'EPH = 103.33999999999658'
p1231
aS'REF = 1'
p1232
aaS'PART'
p1233
a(lp1234
S'name = Mark1-2Pod'
p1235
aS'cid = 4294677854'
p1236
aS'uid = 2249958345'
p1237
aS'mid = 2507317003'
p1238
aS'launchID = 1'
p1239
aS'parent = 0'
p1240
aS'position = 0,0,0'
p1241
aS'rotation = 0,0,0,1'
p1242
aS'mirror = 1,1,1'
p1243
aS'symMethod = Radial'
p1244
aS'istg = -1'
p1245
aS'resPri = 0'
p1246
aS'dstg = 0'
p1247
aS'sqor = -1'
p1248
aS'sepI = -1'
p1249
aS'sidx = -1'
p1250
aS'attm = 0'
p1251
aS'srfN = , -1'
p1252
aS'attN = bottom, 1'
p1253
aS'attN = top, -1'
p1254
aS'mass = 4'
p1255
aS'shielded = False'
p1256
aS'temp = 516.84115312907124'
p1257
aS'tempExt = 517.13955999807536'
p1258
aS'tempExtUnexp = 4'
p1259
aS'expt = 0.5'
p1260
aS'state = 0'
p1261
aS'attached = True'
p1262
aS'autostrutMode = Off'
p1263
aS'rigidAttachment = False'
p1264
aS'flag = Squad/Flags/default'
p1265
aS'rTrf = Mark1-2Pod (CASHMONEY)'
p1266
aS'modCost = 0'
p1267
aS'crew = Jebediah Kerman'
p1268
aS'crew = Bill Kerman'
p1269
aS'crew = Bob Kerman'
p1270
aS'EVENTS'
p1271
a(lp1272
aS'ACTIONS'
p1273
a(lp1274
aS'PARTDATA'
p1275
a(lp1276
aS'MODULE'
p1277
a(lp1278
S'name = ModuleCommand'
p1279
aS'isEnabled = True'
p1280
aS'hibernation = False'
p1281
aS'hibernateOnWarp = False'
p1282
aS'stagingEnabled = True'
p1283
aS'EVENTS'
p1284
a(lp1285
aS'ACTIONS'
p1286
a(lp1287
S'HibernateToggle'
p1288
a(lp1289
S'actionGroup = None'
p1290
aS'active = False'
p1291
aaaS'UPGRADESAPPLIED'
p1292
a(lp1293
aaS'MODULE'
p1294
a(lp1295
S'name = ModuleReactionWheel'
p1296
aS'isEnabled = True'
p1297
aS'actuatorModeCycle = 0'
p1298
aS'authorityLimiter = 100'
p1299
aS'stateString = Running'
p1300
aS'stagingEnabled = True'
p1301
aS'WheelState = Active'
p1302
aS'EVENTS'
p1303
a(lp1304
aS'ACTIONS'
p1305
a(lp1306
S'CycleAction'
p1307
a(lp1308
S'actionGroup = None'
p1309
aaS'Activate'
p1310
a(lp1311
S'actionGroup = None'
p1312
aaS'Deactivate'
p1313
a(lp1314
S'actionGroup = None'
p1315
aaS'Toggle'
p1316
a(lp1317
S'actionGroup = None'
p1318
aaaS'UPGRADESAPPLIED'
p1319
a(lp1320
aaS'MODULE'
p1321
a(lp1322
S'name = ModuleColorChanger'
p1323
aS'isEnabled = True'
p1324
aS'animState = False'
p1325
aS'stagingEnabled = True'
p1326
aS'EVENTS'
p1327
a(lp1328
aS'ACTIONS'
p1329
a(lp1330
S'ToggleAction'
p1331
a(lp1332
S'actionGroup = Light'
p1333
aaaS'UPGRADESAPPLIED'
p1334
a(lp1335
aaS'MODULE'
p1336
a(lp1337
S'name = ModuleScienceExperiment'
p1338
aS'isEnabled = True'
p1339
aS'Deployed = False'
p1340
aS'Inoperable = False'
p1341
aS'cooldownToGo = 0'
p1342
aS'stagingEnabled = True'
p1343
aS'EVENTS'
p1344
a(lp1345
aS'ACTIONS'
p1346
a(lp1347
S'DeployAction'
p1348
a(lp1349
S'actionGroup = None'
p1350
aaS'ResetAction'
p1351
a(lp1352
S'actionGroup = None'
p1353
aaaS'UPGRADESAPPLIED'
p1354
a(lp1355
aaS'MODULE'
p1356
a(lp1357
S'name = ModuleScienceContainer'
p1358
aS'isEnabled = True'
p1359
aS'stagingEnabled = True'
p1360
aS'EVENTS'
p1361
a(lp1362
aS'ACTIONS'
p1363
a(lp1364
S'CollectAllAction'
p1365
a(lp1366
S'actionGroup = None'
p1367
aaaS'UPGRADESAPPLIED'
p1368
a(lp1369
aaS'MODULE'
p1370
a(lp1371
S'name = FlagDecal'
p1372
aS'isEnabled = True'
p1373
aS'flagDisplayed = True'
p1374
aS'stagingEnabled = True'
p1375
aS'EVENTS'
p1376
a(lp1377
aS'ACTIONS'
p1378
a(lp1379
aS'UPGRADESAPPLIED'
p1380
a(lp1381
aaS'MODULE'
p1382
a(lp1383
S'name = ModuleConductionMultiplier'
p1384
aS'isEnabled = True'
p1385
aS'stagingEnabled = True'
p1386
aS'EVENTS'
p1387
a(lp1388
aS'ACTIONS'
p1389
a(lp1390
aS'UPGRADESAPPLIED'
p1391
a(lp1392
aaS'MODULE'
p1393
a(lp1394
S'name = ModuleDataTransmitter'
p1395
aS'isEnabled = True'
p1396
aS'xmitIncomplete = False'
p1397
aS'stagingEnabled = True'
p1398
aS'canComm = True'
p1399
aS'EVENTS'
p1400
a(lp1401
aS'ACTIONS'
p1402
a(lp1403
S'StartTransmissionAction'
p1404
a(lp1405
S'actionGroup = None'
p1406
aS'active = False'
p1407
aaaS'UPGRADESAPPLIED'
p1408
a(lp1409
aaS'MODULE'
p1410
a(lp1411
S'name = ModuleProbeControlPoint'
p1412
aS'isEnabled = True'
p1413
aS'stagingEnabled = True'
p1414
aS'EVENTS'
p1415
a(lp1416
aS'ACTIONS'
p1417
a(lp1418
aS'UPGRADESAPPLIED'
p1419
a(lp1420
aaS'MODULE'
p1421
a(lp1422
S'name = ModuleLiftingSurface'
p1423
aS'isEnabled = True'
p1424
aS'stagingEnabled = True'
p1425
aS'EVENTS'
p1426
a(lp1427
aS'ACTIONS'
p1428
a(lp1429
aS'UPGRADESAPPLIED'
p1430
a(lp1431
aaS'MODULE'
p1432
a(lp1433
S'name = ModuleTripLogger'
p1434
aS'isEnabled = True'
p1435
aS'stagingEnabled = True'
p1436
aS'EVENTS'
p1437
a(lp1438
aS'ACTIONS'
p1439
a(lp1440
aS'Log'
p1441
a(lp1442
S'flight = 0'
p1443
aS'0 = Flight,Kerbin'
p1444
aS'0 = Land,Kerbin'
p1445
aS'0 = Suborbit,Kerbin'
p1446
aS'0 = Orbit,Kerbin'
p1447
aaS'UPGRADESAPPLIED'
p1448
a(lp1449
aaS'RESOURCE'
p1450
a(lp1451
S'name = ElectricCharge'
p1452
aS'amount = 149.93277210439123'
p1453
aS'maxAmount = 150'
p1454
aS'flowState = True'
p1455
aS'isTweakable = True'
p1456
aS'hideFlow = False'
p1457
aS'isVisible = True'
p1458
aS'flowMode = Both'
p1459
aaS'RESOURCE'
p1460
a(lp1461
S'name = MonoPropellant'
p1462
aS'amount = 30'
p1463
aS'maxAmount = 30'
p1464
aS'flowState = True'
p1465
aS'isTweakable = True'
p1466
aS'hideFlow = False'
p1467
aS'isVisible = True'
p1468
aS'flowMode = Both'
p1469
aaaS'PART'
p1470
a(lp1471
S'name = fuelTank1-2'
p1472
aS'cid = 4294660356'
p1473
aS'uid = 1106253177'
p1474
aS'mid = 2507317003'
p1475
aS'launchID = 1'
p1476
aS'parent = 0'
p1477
aS'position = 0,-2.3542404174804688,0'
p1478
aS'rotation = 0,0,0,1'
p1479
aS'mirror = 1,1,1'
p1480
aS'symMethod = Radial'
p1481
aS'istg = -1'
p1482
aS'resPri = 0'
p1483
aS'dstg = 0'
p1484
aS'sqor = -1'
p1485
aS'sepI = -1'
p1486
aS'sidx = -1'
p1487
aS'attm = 0'
p1488
aS'srfN = srfAttach, -1'
p1489
aS'attN = top, 0'
p1490
aS'attN = bottom, 2'
p1491
aS'mass = 2'
p1492
aS'shielded = False'
p1493
aS'temp = 526.20278793478644'
p1494
aS'tempExt = 521.95740845358978'
p1495
aS'tempExtUnexp = 4'
p1496
aS'expt = 0.5'
p1497
aS'state = 0'
p1498
aS'attached = True'
p1499
aS'autostrutMode = Off'
p1500
aS'rigidAttachment = False'
p1501
aS'flag = Squad/Flags/default'
p1502
aS'rTrf = fuelTank1-2'
p1503
aS'modCost = 0'
p1504
aS'EVENTS'
p1505
a(lp1506
aS'ACTIONS'
p1507
a(lp1508
aS'PARTDATA'
p1509
a(lp1510
aS'RESOURCE'
p1511
a(lp1512
S'name = LiquidFuel'
p1513
aS'amount = 0.076089713977552043'
p1514
aS'maxAmount = 1440'
p1515
aS'flowState = True'
p1516
aS'isTweakable = True'
p1517
aS'hideFlow = False'
p1518
aS'isVisible = True'
p1519
aS'flowMode = Both'
p1520
aaS'RESOURCE'
p1521
a(lp1522
S'name = Oxidizer'
p1523
aS'amount = 0.092913772688575147'
p1524
aS'maxAmount = 1760'
p1525
aS'flowState = True'
p1526
aS'isTweakable = True'
p1527
aS'hideFlow = False'
p1528
aS'isVisible = True'
p1529
aS'flowMode = Both'
p1530
aaaS'PART'
p1531
a(lp1532
S'name = liquidEngine1-2'
p1533
aS'cid = 4294651270'
p1534
aS'uid = 2526068782'
p1535
aS'mid = 2507317003'
p1536
aS'launchID = 1'
p1537
aS'parent = 1'
p1538
aS'position = 0,-5.2945480346679688,0'
p1539
aS'rotation = 0,0,0,1'
p1540
aS'mirror = 1,1,1'
p1541
aS'symMethod = Radial'
p1542
aS'istg = 0'
p1543
aS'resPri = 0'
p1544
aS'dstg = 0'
p1545
aS'sqor = 0'
p1546
aS'sepI = -1'
p1547
aS'sidx = 0'
p1548
aS'attm = 0'
p1549
aS'srfN = , -1'
p1550
aS'attN = top, 1'
p1551
aS'attN = bottom, -1'
p1552
aS'mass = 6'
p1553
aS'shielded = False'
p1554
aS'temp = 549.51537647831105'
p1555
aS'tempExt = 536.69205798566827'
p1556
aS'tempExtUnexp = 4'
p1557
aS'expt = 0.5'
p1558
aS'state = 1'
p1559
aS'attached = True'
p1560
aS'autostrutMode = Off'
p1561
aS'rigidAttachment = False'
p1562
aS'flag = Squad/Flags/default'
p1563
aS'rTrf = liquidEngine1-2'
p1564
aS'modCost = 0'
p1565
aS'EVENTS'
p1566
a(lp1567
aS'ACTIONS'
p1568
a(lp1569
aS'PARTDATA'
p1570
a(lp1571
aS'MODULE'
p1572
a(lp1573
S'name = ModuleEngines'
p1574
aS'isEnabled = True'
p1575
aS'staged = True'
p1576
aS'flameout = False'
p1577
aS'EngineIgnited = True'
p1578
aS'engineShutdown = False'
p1579
aS'currentThrottle = 0'
p1580
aS'thrustPercentage = 100'
p1581
aS'manuallyOverridden = False'
p1582
aS'stagingEnabled = True'
p1583
aS'EVENTS'
p1584
a(lp1585
aS'ACTIONS'
p1586
a(lp1587
S'OnAction'
p1588
a(lp1589
S'actionGroup = None'
p1590
aaS'ShutdownAction'
p1591
a(lp1592
S'actionGroup = None'
p1593
aaS'ActivateAction'
p1594
a(lp1595
S'actionGroup = None'
p1596
aaaS'UPGRADESAPPLIED'
p1597
a(lp1598
aaS'MODULE'
p1599
a(lp1600
S'name = ModuleJettison'
p1601
aS'isEnabled = True'
p1602
aS'isJettisoned = True'
p1603
aS'shroudHideOverride = False'
p1604
aS'stagingEnabled = True'
p1605
aS'EVENTS'
p1606
a(lp1607
aS'ACTIONS'
p1608
a(lp1609
S'JettisonAction'
p1610
a(lp1611
S'actionGroup = None'
p1612
aaaS'UPGRADESAPPLIED'
p1613
a(lp1614
aaS'MODULE'
p1615
a(lp1616
S'name = ModuleGimbal'
p1617
aS'isEnabled = True'
p1618
aS'gimbalLock = False'
p1619
aS'gimbalLimiter = 100'
p1620
aS'currentShowToggles = False'
p1621
aS'enableYaw = True'
p1622
aS'enablePitch = True'
p1623
aS'enableRoll = True'
p1624
aS'gimbalActive = True'
p1625
aS'stagingEnabled = True'
p1626
aS'EVENTS'
p1627
a(lp1628
aS'ACTIONS'
p1629
a(lp1630
S'ToggleAction'
p1631
a(lp1632
S'actionGroup = None'
p1633
aaS'LockAction'
p1634
a(lp1635
S'actionGroup = None'
p1636
aaS'FreeAction'
p1637
a(lp1638
S'actionGroup = None'
p1639
aaS'TogglePitchAction'
p1640
a(lp1641
S'actionGroup = None'
p1642
aaS'ToggleYawAction'
p1643
a(lp1644
S'actionGroup = None'
p1645
aaS'ToggleRollAction'
p1646
a(lp1647
S'actionGroup = None'
p1648
aaaS'UPGRADESAPPLIED'
p1649
a(lp1650
aaS'MODULE'
p1651
a(lp1652
S'name = FXModuleAnimateThrottle'
p1653
aS'isEnabled = True'
p1654
aS'animState = 0.143796012'
p1655
aS'stagingEnabled = True'
p1656
aS'EVENTS'
p1657
a(lp1658
aS'ACTIONS'
p1659
a(lp1660
aS'UPGRADESAPPLIED'
p1661
a(lp1662
aaS'MODULE'
p1663
a(lp1664
S'name = ModuleAlternator'
p1665
aS'isEnabled = True'
p1666
aS'stagingEnabled = True'
p1667
aS'EVENTS'
p1668
a(lp1669
aS'ACTIONS'
p1670
a(lp1671
aS'UPGRADESAPPLIED'
p1672
a(lp1673
aaS'MODULE'
p1674
a(lp1675
S'name = ModuleSurfaceFX'
p1676
aS'isEnabled = True'
p1677
aS'stagingEnabled = True'
p1678
aS'EVENTS'
p1679
a(lp1680
aS'ACTIONS'
p1681
a(lp1682
aS'UPGRADESAPPLIED'
p1683
a(lp1684
aaS'MODULE'
p1685
a(lp1686
S'name = ModuleTestSubject'
p1687
aS'isEnabled = True'
p1688
aS'stagingEnabled = True'
p1689
aS'EVENTS'
p1690
a(lp1691
aS'ACTIONS'
p1692
a(lp1693
aS'UPGRADESAPPLIED'
p1694
a(lp1695
aaaS'ACTIONGROUPS'
p1696
a(lp1697
S'Stage = True, 17.5399999999997'
p1698
aS'Gear = False, 0'
p1699
aS'Light = False, 0'
p1700
aS'RCS = False, 0'
p1701
aS'SAS = True, 361.30081298826'
p1702
aS'Brakes = False, 0'
p1703
aS'Abort = False, 0'
p1704
aS'Custom01 = False, 0'
p1705
aS'Custom02 = False, 0'
p1706
aS'Custom03 = False, 0'
p1707
aS'Custom04 = False, 0'
p1708
aS'Custom05 = False, 0'
p1709
aS'Custom06 = False, 0'
p1710
aS'Custom07 = False, 0'
p1711
aS'Custom08 = False, 0'
p1712
aS'Custom09 = False, 0'
p1713
aS'Custom10 = False, 0'
p1714
aaS'DISCOVERY'
p1715
a(lp1716
S'state = -1'
p1717
aS'lastObservedTime = 0'
p1718
aS'lifetime = Infinity'
p1719
aS'refTime = Infinity'
p1720
aS'size = 2'
p1721
aaS'FLIGHTPLAN'
p1722
a(lp1723
aS'CTRLSTATE'
p1724
a(lp1725
S'pitch = -2.25437111E-06'
p1726
aS'yaw = 2.42365277E-05'
p1727
aS'roll = 7.3948986E-06'
p1728
aS'trimPitch = 0'
p1729
aS'trimYaw = 0'
p1730
aS'trimRoll = 0'
p1731
aS'mainThrottle = 0'
p1732
aaS'VESSELMODULES'
p1733
a(lp1734
S'FlightIntegrator'
p1735
a(lp1736
aS'CommNetVessel'
p1737
a(lp1738
S'controlState = KerbalFull'
p1739
aS'canComm = True'
p1740
aaaa(lp1741
S'pid = c323e5d92b414f2294eb39ed580836fe'
p1742
aS'name = Ast. CTN-831'
p1743
aS'type = SpaceObject'
p1744
aS'sit = ORBITING'
p1745
aS'landed = False'
p1746
aS'landedAt ='
p1747
aS'splashed = False'
p1748
aS'met = 40.500000000000732'
p1749
aS'lct = 40.500000000000732'
p1750
aS'lastUT = -1'
p1751
aS'root = 0'
p1752
aS'lat = 0.28849507612406716'
p1753
aS'lon = -175.35396518339127'
p1754
aS'alt = 15152354495.582722'
p1755
aS'hgt = -1'
p1756
aS'nrm = 0,1,0'
p1757
aS'rot = -0.48509419,0.62145108,-0.107945628,0.605664849'
p1758
aS'CoM = 0,0,0'
p1759
aS'stg = 0'
p1760
aS'prst = False'
p1761
aS'ref = 0'
p1762
aS'ctrl = False'
p1763
aS'ORBIT'
p1764
a(lp1765
S'SMA = 14625439063.491568'
p1766
aS'ECC = 0.08649496340923743'
p1767
aS'INC = 0.28972825944767722'
p1768
aS'LPE = 227.62620477530515'
p1769
aS'LAN = 89.391511821908523'
p1770
aS'MNA = 0.51293696810125844'
p1771
aS'EPH = 4392837.9975585938'
p1772
aS'REF = 0'
p1773
aaS'PART'
p1774
a(lp1775
S'name = PotatoRoid'
p1776
aS'cid = 0'
p1777
aS'uid = 1279777798'
p1778
aS'mid = 1279777798'
p1779
aS'launchID = 0'
p1780
aS'parent = 0'
p1781
aS'position = 0,0,0'
p1782
aS'rotation = 0,0,0,1'
p1783
aS'mirror = 1,1,1'
p1784
aS'symMethod = Radial'
p1785
aS'istg = 0'
p1786
aS'resPri = 0'
p1787
aS'dstg = 0'
p1788
aS'sqor = 0'
p1789
aS'sepI = 0'
p1790
aS'sidx = 0'
p1791
aS'attm = 0'
p1792
aS'srfN = None, -1'
p1793
aS'mass = 150'
p1794
aS'shielded = False'
p1795
aS'temp = -1'
p1796
aS'tempExt = 0'
p1797
aS'tempExtUnexp = 0'
p1798
aS'expt = 0.100000001'
p1799
aS'state = 0'
p1800
aS'attached = True'
p1801
aS'autostrutMode = Off'
p1802
aS'rigidAttachment = False'
p1803
aS'flag ='
p1804
aS'rTrf ='
p1805
aS'modCost = 0'
p1806
aaS'ACTIONGROUPS'
p1807
a(lp1808
aS'DISCOVERY'
p1809
a(lp1810
S'state = 1'
p1811
aS'lastObservedTime = 40.500000000000732'
p1812
aS'lifetime = 845539.50805664063'
p1813
aS'refTime = 1728000'
p1814
aS'size = 2'
p1815
aaS'FLIGHTPLAN'
p1816
a(lp1817
aS'CTRLSTATE'
p1818
a(lp1819
aS'VESSELMODULES'
p1820
a(lp1821
S'FlightIntegrator'
p1822
a(lp1823
aaa(lp1824
S'pid = 4984cb73e0ce424990edbe0c6e89759f'
p1825
aS'name = Ast. YSE-755'
p1826
aS'type = SpaceObject'
p1827
aS'sit = ORBITING'
p1828
aS'landed = False'
p1829
aS'landedAt ='
p1830
aS'splashed = False'
p1831
aS'met = 55.52000000000308'
p1832
aS'lct = 55.52000000000308'
p1833
aS'lastUT = -1'
p1834
aS'root = 0'
p1835
aS'lat = 0.72041603853802583'
p1836
aS'lon = -167.01142912933724'
p1837
aS'alt = 15886101956.425125'
p1838
aS'hgt = -1'
p1839
aS'nrm = 0,1,0'
p1840
aS'rot = -0.0797211155,-0.658317029,-0.561916828,0.49448213'
p1841
aS'CoM = 0,0,0'
p1842
aS'stg = 0'
p1843
aS'prst = False'
p1844
aS'ref = 0'
p1845
aS'ctrl = False'
p1846
aS'ORBIT'
p1847
a(lp1848
S'SMA = 15075910543.123953'
p1849
aS'ECC = 0.10116233212942399'
p1850
aS'INC = 1.2412818232366303'
p1851
aS'LPE = 174.11869086953462'
p1852
aS'LAN = 157.56174951023775'
p1853
aS'MNA = 0.24117882166705087'
p1854
aS'EPH = 4307065.0658984371'
p1855
aS'REF = 0'
p1856
aaS'PART'
p1857
a(lp1858
S'name = PotatoRoid'
p1859
aS'cid = 0'
p1860
aS'uid = 1188381380'
p1861
aS'mid = 1188381380'
p1862
aS'launchID = 0'
p1863
aS'parent = 0'
p1864
aS'position = 0,0,0'
p1865
aS'rotation = 0,0,0,1'
p1866
aS'mirror = 1,1,1'
p1867
aS'symMethod = Radial'
p1868
aS'istg = 0'
p1869
aS'resPri = 0'
p1870
aS'dstg = 0'
p1871
aS'sqor = 0'
p1872
aS'sepI = 0'
p1873
aS'sidx = 0'
p1874
aS'attm = 0'
p1875
aS'srfN = None, -1'
p1876
aS'mass = 150'
p1877
aS'shielded = False'
p1878
aS'temp = -1'
p1879
aS'tempExt = 0'
p1880
aS'tempExtUnexp = 0'
p1881
aS'expt = 0.100000001'
p1882
aS'state = 0'
p1883
aS'attached = True'
p1884
aS'autostrutMode = Off'
p1885
aS'rigidAttachment = False'
p1886
aS'flag ='
p1887
aS'rTrf ='
p1888
aS'modCost = 0'
p1889
aaS'ACTIONGROUPS'
p1890
a(lp1891
aS'DISCOVERY'
p1892
a(lp1893
S'state = 1'
p1894
aS'lastObservedTime = 55.52000000000308'
p1895
aS'lifetime = 346086.474609375'
p1896
aS'refTime = 1728000'
p1897
aS'size = 2'
p1898
aaS'FLIGHTPLAN'
p1899
a(lp1900
aS'CTRLSTATE'
p1901
a(lp1902
aS'VESSELMODULES'
p1903
a(lp1904
S'FlightIntegrator'
p1905
a(lp1906
aaa(lp1907
S'pid = df1c75ce4ed1435687fb9b9b747b968c'
p1908
aS'name = Ast. YEW-058'
p1909
aS'type = SpaceObject'
p1910
aS'sit = ORBITING'
p1911
aS'landed = False'
p1912
aS'landedAt ='
p1913
aS'splashed = False'
p1914
aS'met = 138.98734863281237'
p1915
aS'lct = 138.98734863281237'
p1916
aS'lastUT = -1'
p1917
aS'root = 0'
p1918
aS'lat = 0.14549631049324421'
p1919
aS'lon = -171.60682268293328'
p1920
aS'alt = 14348517482.773741'
p1921
aS'hgt = -1'
p1922
aS'nrm = 0,1,0'
p1923
aS'rot = 0.716183662,0.122017525,0.685288846,0.0507145599'
p1924
aS'CoM = 0,0,0'
p1925
aS'stg = 0'
p1926
aS'prst = False'
p1927
aS'ref = 0'
p1928
aS'ctrl = False'
p1929
aS'ORBIT'
p1930
a(lp1931
S'SMA = 14111457295.773224'
p1932
aS'ECC = 0.03651761650483866'
p1933
aS'INC = 0.28656728102879248'
p1934
aS'LPE = 196.42362241651171'
p1935
aS'LAN = 157.99704401267036'
p1936
aS'MNA = -0.18794883366151055'
p1937
aS'EPH = 4164055.7842236329'
p1938
aS'REF = 0'
p1939
aaS'PART'
p1940
a(lp1941
S'name = PotatoRoid'
p1942
aS'cid = 0'
p1943
aS'uid = 896269906'
p1944
aS'mid = 896269906'
p1945
aS'launchID = 0'
p1946
aS'parent = 0'
p1947
aS'position = 0,0,0'
p1948
aS'rotation = 0,0,0,1'
p1949
aS'mirror = 1,1,1'
p1950
aS'symMethod = Radial'
p1951
aS'istg = 0'
p1952
aS'resPri = 0'
p1953
aS'dstg = 0'
p1954
aS'sqor = 0'
p1955
aS'sepI = 0'
p1956
aS'sidx = 0'
p1957
aS'attm = 0'
p1958
aS'srfN = None, -1'
p1959
aS'mass = 150'
p1960
aS'shielded = False'
p1961
aS'temp = -1'
p1962
aS'tempExt = 0'
p1963
aS'tempExtUnexp = 0'
p1964
aS'expt = 0.100000001'
p1965
aS'state = 0'
p1966
aS'attached = True'
p1967
aS'autostrutMode = Off'
p1968
aS'rigidAttachment = False'
p1969
aS'flag ='
p1970
aS'rTrf ='
p1971
aS'modCost = 0'
p1972
aaS'ACTIONGROUPS'
p1973
a(lp1974
aS'DISCOVERY'
p1975
a(lp1976
S'state = 1'
p1977
aS'lastObservedTime = 138.98734863281237'
p1978
aS'lifetime = 549368.42651367188'
p1979
aS'refTime = 1728000'
p1980
aS'size = 2'
p1981
aaS'FLIGHTPLAN'
p1982
a(lp1983
aS'CTRLSTATE'
p1984
a(lp1985
aS'VESSELMODULES'
p1986
a(lp1987
S'FlightIntegrator'
p1988
a(lp1989
aaa(lp1990
S'pid = e38b83fbd67444b9bc49c9f043b709ff'
p1991
aS'name = Ast. CCP-649'
p1992
aS'type = SpaceObject'
p1993
aS'sit = ORBITING'
p1994
aS'landed = False'
p1995
aS'landedAt ='
p1996
aS'splashed = False'
p1997
aS'met = 150.6673486328142'
p1998
aS'lct = 150.6673486328142'
p1999
aS'lastUT = -1'
p2000
aS'root = 0'
p2001
aS'lat = 0.84779921203729525'
p2002
aS'lon = -174.69936808182868'
p2003
aS'alt = 14347430087.436384'
p2004
aS'hgt = -1'
p2005
aS'nrm = 0,1,0'
p2006
aS'rot = 0.194359675,-0.577605486,0.562045395,0.559196889'
p2007
aS'CoM = 0,0,0'
p2008
aS'stg = 0'
p2009
aS'prst = False'
p2010
aS'ref = 0'
p2011
aS'ctrl = False'
p2012
aS'ORBIT'
p2013
a(lp2014
S'SMA = 14139588900.875263'
p2015
aS'ECC = 0.041758309123997715'
p2016
aS'INC = 1.4212195432839554'
p2017
aS'LPE = 180.71375139689366'
p2018
aS'LAN = 148.81007958105812'
p2019
aS'MNA = 0.04057996067142066'
p2020
aS'EPH = 3890290.3646142576'
p2021
aS'REF = 0'
p2022
aaS'PART'
p2023
a(lp2024
S'name = PotatoRoid'
p2025
aS'cid = 0'
p2026
aS'uid = 2082996479'
p2027
aS'mid = 2082996479'
p2028
aS'launchID = 0'
p2029
aS'parent = 0'
p2030
aS'position = 0,0,0'
p2031
aS'rotation = 0,0,0,1'
p2032
aS'mirror = 1,1,1'
p2033
aS'symMethod = Radial'
p2034
aS'istg = 0'
p2035
aS'resPri = 0'
p2036
aS'dstg = 0'
p2037
aS'sqor = 0'
p2038
aS'sepI = 0'
p2039
aS'sidx = 0'
p2040
aS'attm = 0'
p2041
aS'srfN = None, -1'
p2042
aS'mass = 150'
p2043
aS'shielded = False'
p2044
aS'temp = -1'
p2045
aS'tempExt = 0'
p2046
aS'tempExtUnexp = 0'
p2047
aS'expt = 0.100000001'
p2048
aS'state = 0'
p2049
aS'attached = True'
p2050
aS'autostrutMode = Off'
p2051
aS'rigidAttachment = False'
p2052
aS'flag ='
p2053
aS'rTrf ='
p2054
aS'modCost = 0'
p2055
aaS'ACTIONGROUPS'
p2056
a(lp2057
aS'DISCOVERY'
p2058
a(lp2059
S'state = 1'
p2060
aS'lastObservedTime = 150.6673486328142'
p2061
aS'lifetime = 812410.04333496094'
p2062
aS'refTime = 1728000'
p2063
aS'size = 0'
p2064
aaS'FLIGHTPLAN'
p2065
a(lp2066
aS'CTRLSTATE'
p2067
a(lp2068
aS'VESSELMODULES'
p2069
a(lp2070
S'FlightIntegrator'
p2071
a(lp2072
aaa(lp2073
S'pid = 812ae2a7330144848e38afd69cc306d1'
p2074
aS'name = Ast. GTT-135'
p2075
aS'type = SpaceObject'
p2076
aS'sit = ORBITING'
p2077
aS'landed = False'
p2078
aS'landedAt ='
p2079
aS'splashed = False'
p2080
aS'met = 316.93193115234629'
p2081
aS'lct = 316.93193115234629'
p2082
aS'lastUT = -1'
p2083
aS'root = 0'
p2084
aS'lat = 1.54415876055225'
p2085
aS'lon = -179.99478641746862'
p2086
aS'alt = 14272442855.896698'
p2087
aS'hgt = -1'
p2088
aS'nrm = 0,1,0'
p2089
aS'rot = -0.482767969,0.255019158,0.642603755,0.537550628'
p2090
aS'CoM = 0,0,0'
p2091
aS'stg = 0'
p2092
aS'prst = False'
p2093
aS'ref = 0'
p2094
aS'ctrl = False'
p2095
aS'ORBIT'
p2096
a(lp2097
S'SMA = 14596445009.920477'
p2098
aS'ECC = 0.07083537691897103'
p2099
aS'INC = 1.7295949810736895'
p2100
aS'LPE = 153.83215051494159'
p2101
aS'LAN = 117.05083282852308'
p2102
aS'MNA = 0.36454941939269214'
p2103
aS'EPH = 2938925.4768530275'
p2104
aS'REF = 0'
p2105
aaS'PART'
p2106
a(lp2107
S'name = PotatoRoid'
p2108
aS'cid = 0'
p2109
aS'uid = 1518965343'
p2110
aS'mid = 1518965343'
p2111
aS'launchID = 0'
p2112
aS'parent = 0'
p2113
aS'position = 0,0,0'
p2114
aS'rotation = 0,0,0,1'
p2115
aS'mirror = 1,1,1'
p2116
aS'symMethod = Radial'
p2117
aS'istg = 0'
p2118
aS'resPri = 0'
p2119
aS'dstg = 0'
p2120
aS'sqor = 0'
p2121
aS'sepI = 0'
p2122
aS'sidx = 0'
p2123
aS'attm = 0'
p2124
aS'srfN = None, -1'
p2125
aS'mass = 150'
p2126
aS'shielded = False'
p2127
aS'temp = -1'
p2128
aS'tempExt = 0'
p2129
aS'tempExtUnexp = 0'
p2130
aS'expt = 0.100000001'
p2131
aS'state = 0'
p2132
aS'attached = True'
p2133
aS'autostrutMode = Off'
p2134
aS'rigidAttachment = False'
p2135
aS'flag ='
p2136
aS'rTrf ='
p2137
aS'modCost = 0'
p2138
aaS'ACTIONGROUPS'
p2139
a(lp2140
aS'DISCOVERY'
p2141
a(lp2142
S'state = 1'
p2143
aS'lastObservedTime = 316.93193115234629'
p2144
aS'lifetime = 673975.38757324219'
p2145
aS'refTime = 1728000'
p2146
aS'size = 2'
p2147
aaS'FLIGHTPLAN'
p2148
a(lp2149
aS'CTRLSTATE'
p2150
a(lp2151
aS'VESSELMODULES'
p2152
a(lp2153
S'FlightIntegrator'
p2154
a(lp2155
aaa(lp2156
S'pid = df6afd19dbb848c4879b78158f76568b'
p2157
aS'name = Ast. UCJ-748'
p2158
aS'type = SpaceObject'
p2159
aS'sit = ORBITING'
p2160
aS'landed = False'
p2161
aS'landedAt ='
p2162
aS'splashed = False'
p2163
aS'met = 331.17558349609629'
p2164
aS'lct = 331.17558349609629'
p2165
aS'lastUT = -1'
p2166
aS'root = 0'
p2167
aS'lat = -1.1387833271834171'
p2168
aS'lon = -177.56653188443744'
p2169
aS'alt = 15184445988.227919'
p2170
aS'hgt = -1'
p2171
aS'nrm = 0,1,0'
p2172
aS'rot = 0.58223182,0.18636331,0.509344041,0.605675936'
p2173
aS'CoM = 0,0,0'
p2174
aS'stg = 0'
p2175
aS'prst = False'
p2176
aS'ref = 0'
p2177
aS'ctrl = False'
p2178
aS'ORBIT'
p2179
a(lp2180
S'SMA = 15818214428.423716'
p2181
aS'ECC = 0.13990839730838781'
p2182
aS'INC = 1.1438678664792621'
p2183
aS'LPE = 3.7456207799340113'
p2184
aS'LAN = 267.30447055301107'
p2185
aS'MNA = -0.051809269553308029'
p2186
aS'EPH = 2227483.7878881837'
p2187
aS'REF = 0'
p2188
aaS'PART'
p2189
a(lp2190
S'name = PotatoRoid'
p2191
aS'cid = 0'
p2192
aS'uid = 349842405'
p2193
aS'mid = 349842405'
p2194
aS'launchID = 0'
p2195
aS'parent = 0'
p2196
aS'position = 0,0,0'
p2197
aS'rotation = 0,0,0,1'
p2198
aS'mirror = 1,1,1'
p2199
aS'symMethod = Radial'
p2200
aS'istg = 0'
p2201
aS'resPri = 0'
p2202
aS'dstg = 0'
p2203
aS'sqor = 0'
p2204
aS'sepI = 0'
p2205
aS'sidx = 0'
p2206
aS'attm = 0'
p2207
aS'srfN = None, -1'
p2208
aS'mass = 150'
p2209
aS'shielded = False'
p2210
aS'temp = -1'
p2211
aS'tempExt = 0'
p2212
aS'tempExtUnexp = 0'
p2213
aS'expt = 0.100000001'
p2214
aS'state = 0'
p2215
aS'attached = True'
p2216
aS'autostrutMode = Off'
p2217
aS'rigidAttachment = False'
p2218
aS'flag ='
p2219
aS'rTrf ='
p2220
aS'modCost = 0'
p2221
aaS'ACTIONGROUPS'
p2222
a(lp2223
aS'DISCOVERY'
p2224
a(lp2225
S'state = 1'
p2226
aS'lastObservedTime = 331.17558349609629'
p2227
aS'lifetime = 643163.10424804688'
p2228
aS'refTime = 1728000'
p2229
aS'size = 2'
p2230
aaS'FLIGHTPLAN'
p2231
a(lp2232
aS'CTRLSTATE'
p2233
a(lp2234
aS'VESSELMODULES'
p2235
a(lp2236
S'FlightIntegrator'
p2237
a(lp2238
aaa(lp2239
S'pid = ba0a234b9e8d479eb956a18fae923a83'
p2240
aS'name = Ast. HSJ-227'
p2241
aS'type = SpaceObject'
p2242
aS'sit = ORBITING'
p2243
aS'landed = False'
p2244
aS'landedAt ='
p2245
aS'splashed = False'
p2246
aS'met = 2.6400000000000019'
p2247
aS'lct = 2.6400000000000019'
p2248
aS'lastUT = -1'
p2249
aS'root = 0'
p2250
aS'lat = -2.8344985032279912'
p2251
aS'lon = -178.92095279365432'
p2252
aS'alt = 14594571746.1371'
p2253
aS'hgt = -1'
p2254
aS'nrm = 0,1,0'
p2255
aS'rot = -0.298433661,0.402898014,-0.817398846,0.283672005'
p2256
aS'CoM = 0,0,0'
p2257
aS'stg = 0'
p2258
aS'prst = False'
p2259
aS'ref = 0'
p2260
aS'ctrl = False'
p2261
aS'ORBIT'
p2262
a(lp2263
S'SMA = 15240347758.379009'
p2264
aS'ECC = 0.10914615505195843'
p2265
aS'INC = 2.8722540004493489'
p2266
aS'LPE = 2.1180288766478137'
p2267
aS'LAN = 261.77336781209078'
p2268
aS'MNA = -0.055491540205220076'
p2269
aS'EPH = 2043588.3760839843'
p2270
aS'REF = 0'
p2271
aaS'PART'
p2272
a(lp2273
S'name = PotatoRoid'
p2274
aS'cid = 0'
p2275
aS'uid = 559298752'
p2276
aS'mid = 559298752'
p2277
aS'launchID = 0'
p2278
aS'parent = 0'
p2279
aS'position = 0,0,0'
p2280
aS'rotation = 0,0,0,1'
p2281
aS'mirror = 1,1,1'
p2282
aS'symMethod = Radial'
p2283
aS'istg = 0'
p2284
aS'resPri = 0'
p2285
aS'dstg = 0'
p2286
aS'sqor = 0'
p2287
aS'sepI = 0'
p2288
aS'sidx = 0'
p2289
aS'attm = 0'
p2290
aS'srfN = None, -1'
p2291
aS'mass = 150'
p2292
aS'shielded = False'
p2293
aS'temp = -1'
p2294
aS'tempExt = 0'
p2295
aS'tempExtUnexp = 0'
p2296
aS'expt = 0.100000001'
p2297
aS'state = 0'
p2298
aS'attached = True'
p2299
aS'autostrutMode = Off'
p2300
aS'rigidAttachment = False'
p2301
aS'flag ='
p2302
aS'rTrf ='
p2303
aS'modCost = 0'
p2304
aaS'ACTIONGROUPS'
p2305
a(lp2306
aS'DISCOVERY'
p2307
a(lp2308
S'state = 1'
p2309
aS'lastObservedTime = 2.6400000000000019'
p2310
aS'lifetime = 586354.71038818359'
p2311
aS'refTime = 1728000'
p2312
aS'size = 4'
p2313
aaS'FLIGHTPLAN'
p2314
a(lp2315
aS'CTRLSTATE'
p2316
a(lp2317
aS'VESSELMODULES'
p2318
a(lp2319
S'FlightIntegrator'
p2320
a(lp2321
aaa(lp2322
S'pid = 91eb41ad1c0b4d209231d57e3db1fc4c'
p2323
aS'name = Untitled Space Craft'
p2324
aS'type = Plane'
p2325
aS'sit = PRELAUNCH'
p2326
aS'landed = True'
p2327
aS'landedAt = LaunchPad'
p2328
aS'splashed = False'
p2329
aS'met = 0'
p2330
aS'lct = 120.67999999999313'
p2331
aS'lastUT = 120.67999999999313'
p2332
aS'root = 0'
p2333
aS'lat = -0.097207768005365985'
p2334
aS'lon = -74.557680931386187'
p2335
aS'alt = 78.973697278415784'
p2336
aS'hgt = 6.43803787'
p2337
aS'nrm = 0.000589460135,0.999999821,-8.3565712E-05'
p2338
aS'rot = -0.700959861,-0.0923312083,-0.0972613916,0.700478792'
p2339
aS'CoM = 9.29832458E-06,-1.25027037,0.0128365755'
p2340
aS'stg = 1'
p2341
aS'prst = False'
p2342
aS'ref = 1889657593'
p2343
aS'ctrl = True'
p2344
aS'cPch = 0.2'
p2345
aS'cHdg = 0.3'
p2346
aS'cMod = 0'
p2347
aS'ORBIT'
p2348
a(lp2349
S'SMA = 300821.23968403396'
p2350
aS'ECC = 0.99479838609935456'
p2351
aS'INC = 0.097206552872571572'
p2352
aS'LPE = 90.000000000000014'
p2353
aS'LAN = 107.458372923669'
p2354
aS'MNA = 3.1415926535897887'
p2355
aS'EPH = 120.67999999999313'
p2356
aS'REF = 1'
p2357
aaS'PART'
p2358
a(lp2359
S'name = mk3FuselageLF.50'
p2360
aS'cid = 4294622570'
p2361
aS'uid = 2830822272'
p2362
aS'mid = 1081798322'
p2363
aS'launchID = 1'
p2364
aS'parent = 0'
p2365
aS'position = 0,0,0'
p2366
aS'rotation = 0,0,0,1'
p2367
aS'mirror = 1,1,1'
p2368
aS'symMethod = Radial'
p2369
aS'istg = -1'
p2370
aS'resPri = 0'
p2371
aS'dstg = 0'
p2372
aS'sqor = -1'
p2373
aS'sepI = -1'
p2374
aS'sidx = -1'
p2375
aS'attm = 0'
p2376
aS'srfN = srfAttach, -1'
p2377
aS'attN = top, 5'
p2378
aS'attN = bottom, -1'
p2379
aS'mass = 3.56999993'
p2380
aS'shielded = False'
p2381
aS'temp = 311.3693172790409'
p2382
aS'tempExt = 311.52751090961453'
p2383
aS'tempExtUnexp = 311.51016819970795'
p2384
aS'expt = 0.5'
p2385
aS'state = 0'
p2386
aS'attached = True'
p2387
aS'autostrutMode = Off'
p2388
aS'rigidAttachment = False'
p2389
aS'flag = Squad/Flags/minimalistic'
p2390
aS'rTrf = mk3FuselageLF.50'
p2391
aS'modCost = 0'
p2392
aS'EVENTS'
p2393
a(lp2394
aS'ACTIONS'
p2395
a(lp2396
aS'PARTDATA'
p2397
a(lp2398
aS'RESOURCE'
p2399
a(lp2400
S'name = LiquidFuel'
p2401
aS'amount = 5000'
p2402
aS'maxAmount = 5000'
p2403
aS'flowState = True'
p2404
aS'isTweakable = True'
p2405
aS'hideFlow = False'
p2406
aS'isVisible = True'
p2407
aS'flowMode = Both'
p2408
aaaS'PART'
p2409
a(lp2410
S'name = turboFanSize2'
p2411
aS'cid = 4294613048'
p2412
aS'uid = 1993752422'
p2413
aS'mid = 1081798322'
p2414
aS'launchID = 1'
p2415
aS'parent = 0'
p2416
aS'position = -2.1375219821929932,-4.4643621444702148,-2.1375195980072021'
p2417
aS'rotation = -0.923879325,-6.48376286E-08,0.382684082,-1.56531556E-07'
p2418
aS'mirror = 1,1,1'
p2419
aS'symMethod = Radial'
p2420
aS'istg = 0'
p2421
aS'resPri = 0'
p2422
aS'dstg = 0'
p2423
aS'sqor = 0'
p2424
aS'sepI = -1'
p2425
aS'sidx = 0'
p2426
aS'attm = 1'
p2427
aS'sym = 2'
p2428
aS'sym = 3'
p2429
aS'sym = 4'
p2430
aS'srfN = srfAttach, 0'
p2431
aS'attN = top, -1'
p2432
aS'mass = 4.5'
p2433
aS'shielded = False'
p2434
aS'temp = 311.3700890797993'
p2435
aS'tempExt = 311.66411897485011'
p2436
aS'tempExtUnexp = 311.66945087291913'
p2437
aS'expt = 0.5'
p2438
aS'state = 0'
p2439
aS'attached = True'
p2440
aS'autostrutMode = Off'
p2441
aS'rigidAttachment = False'
p2442
aS'flag = Squad/Flags/minimalistic'
p2443
aS'rTrf = turboFanSize2'
p2444
aS'modCost = 0'
p2445
aS'EVENTS'
p2446
a(lp2447
aS'ACTIONS'
p2448
a(lp2449
aS'PARTDATA'
p2450
a(lp2451
aS'MODULE'
p2452
a(lp2453
S'name = ModuleResourceIntake'
p2454
aS'isEnabled = True'
p2455
aS'intakeEnabled = True'
p2456
aS'stagingEnabled = True'
p2457
aS'EVENTS'
p2458
a(lp2459
aS'ACTIONS'
p2460
a(lp2461
S'ToggleAction'
p2462
a(lp2463
S'actionGroup = None'
p2464
aaaS'UPGRADESAPPLIED'
p2465
a(lp2466
aaS'MODULE'
p2467
a(lp2468
S'name = ModuleEnginesFX'
p2469
aS'isEnabled = True'
p2470
aS'staged = False'
p2471
aS'flameout = False'
p2472
aS'EngineIgnited = False'
p2473
aS'engineShutdown = False'
p2474
aS'currentThrottle = 0'
p2475
aS'thrustPercentage = 100'
p2476
aS'manuallyOverridden = False'
p2477
aS'stagingEnabled = True'
p2478
aS'EVENTS'
p2479
a(lp2480
aS'ACTIONS'
p2481
a(lp2482
S'OnAction'
p2483
a(lp2484
S'actionGroup = None'
p2485
aaS'ShutdownAction'
p2486
a(lp2487
S'actionGroup = None'
p2488
aaS'ActivateAction'
p2489
a(lp2490
S'actionGroup = None'
p2491
aaaS'UPGRADESAPPLIED'
p2492
a(lp2493
aaS'MODULE'
p2494
a(lp2495
S'name = ModuleAnimateHeat'
p2496
aS'isEnabled = True'
p2497
aS'stagingEnabled = True'
p2498
aS'EVENTS'
p2499
a(lp2500
aS'ACTIONS'
p2501
a(lp2502
aS'UPGRADESAPPLIED'
p2503
a(lp2504
aaS'MODULE'
p2505
a(lp2506
S'name = ModuleAnimateGeneric'
p2507
aS'isEnabled = True'
p2508
aS'aniState = LOCKED'
p2509
aS'animSwitch = False'
p2510
aS'animTime = 1'
p2511
aS'animSpeed = 10'
p2512
aS'deployPercent = 100'
p2513
aS'animationIsDisabled = False'
p2514
aS'stagingEnabled = True'
p2515
aS'EVENTS'
p2516
a(lp2517
aS'ACTIONS'
p2518
a(lp2519
S'ToggleAction'
p2520
a(lp2521
S'actionGroup = None'
p2522
aaaS'UPGRADESAPPLIED'
p2523
a(lp2524
aaS'MODULE'
p2525
a(lp2526
S'name = FXModuleAnimateThrottle'
p2527
aS'isEnabled = True'
p2528
aS'animState = 0'
p2529
aS'stagingEnabled = True'
p2530
aS'EVENTS'
p2531
a(lp2532
aS'ACTIONS'
p2533
a(lp2534
aS'UPGRADESAPPLIED'
p2535
a(lp2536
aaS'MODULE'
p2537
a(lp2538
S'name = ModuleJettison'
p2539
aS'isEnabled = True'
p2540
aS'isJettisoned = True'
p2541
aS'shroudHideOverride = False'
p2542
aS'stagingEnabled = True'
p2543
aS'EVENTS'
p2544
a(lp2545
aS'ACTIONS'
p2546
a(lp2547
S'JettisonAction'
p2548
a(lp2549
S'actionGroup = None'
p2550
aaaS'UPGRADESAPPLIED'
p2551
a(lp2552
aaS'MODULE'
p2553
a(lp2554
S'name = FlagDecal'
p2555
aS'isEnabled = True'
p2556
aS'flagDisplayed = True'
p2557
aS'stagingEnabled = True'
p2558
aS'EVENTS'
p2559
a(lp2560
aS'ACTIONS'
p2561
a(lp2562
aS'UPGRADESAPPLIED'
p2563
a(lp2564
aaS'MODULE'
p2565
a(lp2566
S'name = ModuleAlternator'
p2567
aS'isEnabled = True'
p2568
aS'stagingEnabled = True'
p2569
aS'EVENTS'
p2570
a(lp2571
aS'ACTIONS'
p2572
a(lp2573
aS'UPGRADESAPPLIED'
p2574
a(lp2575
aaS'MODULE'
p2576
a(lp2577
S'name = ModuleTestSubject'
p2578
aS'isEnabled = True'
p2579
aS'stagingEnabled = True'
p2580
aS'EVENTS'
p2581
a(lp2582
aS'ACTIONS'
p2583
a(lp2584
aS'UPGRADESAPPLIED'
p2585
a(lp2586
aaS'MODULE'
p2587
a(lp2588
S'name = ModuleSurfaceFX'
p2589
aS'isEnabled = True'
p2590
aS'stagingEnabled = True'
p2591
aS'EVENTS'
p2592
a(lp2593
aS'ACTIONS'
p2594
a(lp2595
aS'UPGRADESAPPLIED'
p2596
a(lp2597
aaS'RESOURCE'
p2598
a(lp2599
S'name = IntakeAir'
p2600
aS'amount = 3.3999999999999999'
p2601
aS'maxAmount = 3.3999999999999999'
p2602
aS'flowState = True'
p2603
aS'isTweakable = False'
p2604
aS'hideFlow = False'
p2605
aS'isVisible = False'
p2606
aS'flowMode = Both'
p2607
aaaS'PART'
p2608
a(lp2609
S'name = turboFanSize2'
p2610
aS'cid = 4294612776'
p2611
aS'uid = 2282115265'
p2612
aS'mid = 1081798322'
p2613
aS'launchID = 1'
p2614
aS'parent = 0'
p2615
aS'position = -2.1375195980072021,-4.4643621444702148,2.1375217437744141'
p2616
aS'rotation = -0.38268283,-1.56531655E-07,0.923879802,-6.48373941E-08'
p2617
aS'mirror = 1,1,1'
p2618
aS'symMethod = Radial'
p2619
aS'istg = 0'
p2620
aS'resPri = 0'
p2621
aS'dstg = 0'
p2622
aS'sqor = 0'
p2623
aS'sepI = -1'
p2624
aS'sidx = 0'
p2625
aS'attm = 1'
p2626
aS'sym = 1'
p2627
aS'sym = 3'
p2628
aS'sym = 4'
p2629
aS'srfN = srfAttach, 0'
p2630
aS'attN = top, -1'
p2631
aS'mass = 4.5'
p2632
aS'shielded = False'
p2633
aS'temp = 311.36958993720862'
p2634
aS'tempExt = 311.48042238773417'
p2635
aS'tempExtUnexp = 311.48131848674683'
p2636
aS'expt = 0.5'
p2637
aS'state = 0'
p2638
aS'attached = True'
p2639
aS'autostrutMode = Off'
p2640
aS'rigidAttachment = False'
p2641
aS'flag = Squad/Flags/minimalistic'
p2642
aS'rTrf = turboFanSize2'
p2643
aS'modCost = 0'
p2644
aS'EVENTS'
p2645
a(lp2646
aS'ACTIONS'
p2647
a(lp2648
aS'PARTDATA'
p2649
a(lp2650
aS'MODULE'
p2651
a(lp2652
S'name = ModuleResourceIntake'
p2653
aS'isEnabled = True'
p2654
aS'intakeEnabled = True'
p2655
aS'stagingEnabled = True'
p2656
aS'EVENTS'
p2657
a(lp2658
aS'ACTIONS'
p2659
a(lp2660
S'ToggleAction'
p2661
a(lp2662
S'actionGroup = None'
p2663
aaaS'UPGRADESAPPLIED'
p2664
a(lp2665
aaS'MODULE'
p2666
a(lp2667
S'name = ModuleEnginesFX'
p2668
aS'isEnabled = True'
p2669
aS'staged = False'
p2670
aS'flameout = False'
p2671
aS'EngineIgnited = False'
p2672
aS'engineShutdown = False'
p2673
aS'currentThrottle = 0'
p2674
aS'thrustPercentage = 100'
p2675
aS'manuallyOverridden = False'
p2676
aS'stagingEnabled = True'
p2677
aS'EVENTS'
p2678
a(lp2679
aS'ACTIONS'
p2680
a(lp2681
S'OnAction'
p2682
a(lp2683
S'actionGroup = None'
p2684
aaS'ShutdownAction'
p2685
a(lp2686
S'actionGroup = None'
p2687
aaS'ActivateAction'
p2688
a(lp2689
S'actionGroup = None'
p2690
aaaS'UPGRADESAPPLIED'
p2691
a(lp2692
aaS'MODULE'
p2693
a(lp2694
S'name = ModuleAnimateHeat'
p2695
aS'isEnabled = True'
p2696
aS'stagingEnabled = True'
p2697
aS'EVENTS'
p2698
a(lp2699
aS'ACTIONS'
p2700
a(lp2701
aS'UPGRADESAPPLIED'
p2702
a(lp2703
aaS'MODULE'
p2704
a(lp2705
S'name = ModuleAnimateGeneric'
p2706
aS'isEnabled = True'
p2707
aS'aniState = LOCKED'
p2708
aS'animSwitch = False'
p2709
aS'animTime = 1'
p2710
aS'animSpeed = 10'
p2711
aS'deployPercent = 100'
p2712
aS'animationIsDisabled = False'
p2713
aS'stagingEnabled = True'
p2714
aS'EVENTS'
p2715
a(lp2716
aS'ACTIONS'
p2717
a(lp2718
S'ToggleAction'
p2719
a(lp2720
S'actionGroup = None'
p2721
aaaS'UPGRADESAPPLIED'
p2722
a(lp2723
aaS'MODULE'
p2724
a(lp2725
S'name = FXModuleAnimateThrottle'
p2726
aS'isEnabled = True'
p2727
aS'animState = 0'
p2728
aS'stagingEnabled = True'
p2729
aS'EVENTS'
p2730
a(lp2731
aS'ACTIONS'
p2732
a(lp2733
aS'UPGRADESAPPLIED'
p2734
a(lp2735
aaS'MODULE'
p2736
a(lp2737
S'name = ModuleJettison'
p2738
aS'isEnabled = True'
p2739
aS'isJettisoned = True'
p2740
aS'shroudHideOverride = False'
p2741
aS'stagingEnabled = True'
p2742
aS'EVENTS'
p2743
a(lp2744
aS'ACTIONS'
p2745
a(lp2746
S'JettisonAction'
p2747
a(lp2748
S'actionGroup = None'
p2749
aaaS'UPGRADESAPPLIED'
p2750
a(lp2751
aaS'MODULE'
p2752
a(lp2753
S'name = FlagDecal'
p2754
aS'isEnabled = True'
p2755
aS'flagDisplayed = True'
p2756
aS'stagingEnabled = True'
p2757
aS'EVENTS'
p2758
a(lp2759
aS'ACTIONS'
p2760
a(lp2761
aS'UPGRADESAPPLIED'
p2762
a(lp2763
aaS'MODULE'
p2764
a(lp2765
S'name = ModuleAlternator'
p2766
aS'isEnabled = True'
p2767
aS'stagingEnabled = True'
p2768
aS'EVENTS'
p2769
a(lp2770
aS'ACTIONS'
p2771
a(lp2772
aS'UPGRADESAPPLIED'
p2773
a(lp2774
aaS'MODULE'
p2775
a(lp2776
S'name = ModuleTestSubject'
p2777
aS'isEnabled = True'
p2778
aS'stagingEnabled = True'
p2779
aS'EVENTS'
p2780
a(lp2781
aS'ACTIONS'
p2782
a(lp2783
aS'UPGRADESAPPLIED'
p2784
a(lp2785
aaS'MODULE'
p2786
a(lp2787
S'name = ModuleSurfaceFX'
p2788
aS'isEnabled = True'
p2789
aS'stagingEnabled = True'
p2790
aS'EVENTS'
p2791
a(lp2792
aS'ACTIONS'
p2793
a(lp2794
aS'UPGRADESAPPLIED'
p2795
a(lp2796
aaS'RESOURCE'
p2797
a(lp2798
S'name = IntakeAir'
p2799
aS'amount = 3.3999999999999999'
p2800
aS'maxAmount = 3.3999999999999999'
p2801
aS'flowState = True'
p2802
aS'isTweakable = False'
p2803
aS'hideFlow = False'
p2804
aS'isVisible = False'
p2805
aS'flowMode = Both'
p2806
aaaS'PART'
p2807
a(lp2808
S'name = turboFanSize2'
p2809
aS'cid = 4294612626'
p2810
aS'uid = 1579284561'
p2811
aS'mid = 1081798322'
p2812
aS'launchID = 1'
p2813
aS'parent = 0'
p2814
aS'position = 2.1375222206115723,-4.4643621444702148,2.137519359588623'
p2815
aS'rotation = 0.382684112,-1.56531556E-07,0.923879325,6.48376357E-08'
p2816
aS'mirror = 1,1,1'
p2817
aS'symMethod = Radial'
p2818
aS'istg = 0'
p2819
aS'resPri = 0'
p2820
aS'dstg = 0'
p2821
aS'sqor = 0'
p2822
aS'sepI = -1'
p2823
aS'sidx = 0'
p2824
aS'attm = 1'
p2825
aS'sym = 1'
p2826
aS'sym = 2'
p2827
aS'sym = 4'
p2828
aS'srfN = srfAttach, 0'
p2829
aS'attN = top, -1'
p2830
aS'mass = 4.5'
p2831
aS'shielded = False'
p2832
aS'temp = 311.36567518380639'
p2833
aS'tempExt = 310.04159086985663'
p2834
aS'tempExtUnexp = 310.00736946624573'
p2835
aS'expt = 0.5'
p2836
aS'state = 0'
p2837
aS'attached = True'
p2838
aS'autostrutMode = Off'
p2839
aS'rigidAttachment = False'
p2840
aS'flag = Squad/Flags/minimalistic'
p2841
aS'rTrf = turboFanSize2'
p2842
aS'modCost = 0'
p2843
aS'EVENTS'
p2844
a(lp2845
aS'ACTIONS'
p2846
a(lp2847
aS'PARTDATA'
p2848
a(lp2849
aS'MODULE'
p2850
a(lp2851
S'name = ModuleResourceIntake'
p2852
aS'isEnabled = True'
p2853
aS'intakeEnabled = True'
p2854
aS'stagingEnabled = True'
p2855
aS'EVENTS'
p2856
a(lp2857
aS'ACTIONS'
p2858
a(lp2859
S'ToggleAction'
p2860
a(lp2861
S'actionGroup = None'
p2862
aaaS'UPGRADESAPPLIED'
p2863
a(lp2864
aaS'MODULE'
p2865
a(lp2866
S'name = ModuleEnginesFX'
p2867
aS'isEnabled = True'
p2868
aS'staged = False'
p2869
aS'flameout = False'
p2870
aS'EngineIgnited = False'
p2871
aS'engineShutdown = False'
p2872
aS'currentThrottle = 0'
p2873
aS'thrustPercentage = 100'
p2874
aS'manuallyOverridden = False'
p2875
aS'stagingEnabled = True'
p2876
aS'EVENTS'
p2877
a(lp2878
aS'ACTIONS'
p2879
a(lp2880
S'OnAction'
p2881
a(lp2882
S'actionGroup = None'
p2883
aaS'ShutdownAction'
p2884
a(lp2885
S'actionGroup = None'
p2886
aaS'ActivateAction'
p2887
a(lp2888
S'actionGroup = None'
p2889
aaaS'UPGRADESAPPLIED'
p2890
a(lp2891
aaS'MODULE'
p2892
a(lp2893
S'name = ModuleAnimateHeat'
p2894
aS'isEnabled = True'
p2895
aS'stagingEnabled = True'
p2896
aS'EVENTS'
p2897
a(lp2898
aS'ACTIONS'
p2899
a(lp2900
aS'UPGRADESAPPLIED'
p2901
a(lp2902
aaS'MODULE'
p2903
a(lp2904
S'name = ModuleAnimateGeneric'
p2905
aS'isEnabled = True'
p2906
aS'aniState = LOCKED'
p2907
aS'animSwitch = False'
p2908
aS'animTime = 1'
p2909
aS'animSpeed = 10'
p2910
aS'deployPercent = 100'
p2911
aS'animationIsDisabled = False'
p2912
aS'stagingEnabled = True'
p2913
aS'EVENTS'
p2914
a(lp2915
aS'ACTIONS'
p2916
a(lp2917
S'ToggleAction'
p2918
a(lp2919
S'actionGroup = None'
p2920
aaaS'UPGRADESAPPLIED'
p2921
a(lp2922
aaS'MODULE'
p2923
a(lp2924
S'name = FXModuleAnimateThrottle'
p2925
aS'isEnabled = True'
p2926
aS'animState = 0'
p2927
aS'stagingEnabled = True'
p2928
aS'EVENTS'
p2929
a(lp2930
aS'ACTIONS'
p2931
a(lp2932
aS'UPGRADESAPPLIED'
p2933
a(lp2934
aaS'MODULE'
p2935
a(lp2936
S'name = ModuleJettison'
p2937
aS'isEnabled = True'
p2938
aS'isJettisoned = True'
p2939
aS'shroudHideOverride = False'
p2940
aS'stagingEnabled = True'
p2941
aS'EVENTS'
p2942
a(lp2943
aS'ACTIONS'
p2944
a(lp2945
S'JettisonAction'
p2946
a(lp2947
S'actionGroup = None'
p2948
aaaS'UPGRADESAPPLIED'
p2949
a(lp2950
aaS'MODULE'
p2951
a(lp2952
S'name = FlagDecal'
p2953
aS'isEnabled = True'
p2954
aS'flagDisplayed = True'
p2955
aS'stagingEnabled = True'
p2956
aS'EVENTS'
p2957
a(lp2958
aS'ACTIONS'
p2959
a(lp2960
aS'UPGRADESAPPLIED'
p2961
a(lp2962
aaS'MODULE'
p2963
a(lp2964
S'name = ModuleAlternator'
p2965
aS'isEnabled = True'
p2966
aS'stagingEnabled = True'
p2967
aS'EVENTS'
p2968
a(lp2969
aS'ACTIONS'
p2970
a(lp2971
aS'UPGRADESAPPLIED'
p2972
a(lp2973
aaS'MODULE'
p2974
a(lp2975
S'name = ModuleTestSubject'
p2976
aS'isEnabled = True'
p2977
aS'stagingEnabled = True'
p2978
aS'EVENTS'
p2979
a(lp2980
aS'ACTIONS'
p2981
a(lp2982
aS'UPGRADESAPPLIED'
p2983
a(lp2984
aaS'MODULE'
p2985
a(lp2986
S'name = ModuleSurfaceFX'
p2987
aS'isEnabled = True'
p2988
aS'stagingEnabled = True'
p2989
aS'EVENTS'
p2990
a(lp2991
aS'ACTIONS'
p2992
a(lp2993
aS'UPGRADESAPPLIED'
p2994
a(lp2995
aaS'RESOURCE'
p2996
a(lp2997
S'name = IntakeAir'
p2998
aS'amount = 3.3999999999999999'
p2999
aS'maxAmount = 3.3999999999999999'
p3000
aS'flowState = True'
p3001
aS'isTweakable = False'
p3002
aS'hideFlow = False'
p3003
aS'isVisible = False'
p3004
aS'flowMode = Both'
p3005
aaaS'PART'
p3006
a(lp3007
S'name = turboFanSize2'
p3008
aS'cid = 4294612476'
p3009
aS'uid = 4206857482'
p3010
aS'mid = 1081798322'
p3011
aS'launchID = 1'
p3012
aS'parent = 0'
p3013
aS'position = 2.137519359588623,-4.4643621444702148,-2.1375219821929932'
p3014
aS'rotation = 0.923879802,-6.48373941E-08,0.38268283,1.56531655E-07'
p3015
aS'mirror = 1,1,1'
p3016
aS'symMethod = Radial'
p3017
aS'istg = 0'
p3018
aS'resPri = 0'
p3019
aS'dstg = 0'
p3020
aS'sqor = 0'
p3021
aS'sepI = -1'
p3022
aS'sidx = 0'
p3023
aS'attm = 1'
p3024
aS'sym = 1'
p3025
aS'sym = 2'
p3026
aS'sym = 3'
p3027
aS'srfN = srfAttach, 0'
p3028
aS'attN = top, -1'
p3029
aS'mass = 4.5'
p3030
aS'shielded = False'
p3031
aS'temp = 311.36567520151294'
p3032
aS'tempExt = 310.04159284800767'
p3033
aS'tempExtUnexp = 310.00737150246897'
p3034
aS'expt = 0.5'
p3035
aS'state = 0'
p3036
aS'attached = True'
p3037
aS'autostrutMode = Off'
p3038
aS'rigidAttachment = False'
p3039
aS'flag = Squad/Flags/minimalistic'
p3040
aS'rTrf = turboFanSize2'
p3041
aS'modCost = 0'
p3042
aS'EVENTS'
p3043
a(lp3044
aS'ACTIONS'
p3045
a(lp3046
aS'PARTDATA'
p3047
a(lp3048
aS'MODULE'
p3049
a(lp3050
S'name = ModuleResourceIntake'
p3051
aS'isEnabled = True'
p3052
aS'intakeEnabled = True'
p3053
aS'stagingEnabled = True'
p3054
aS'EVENTS'
p3055
a(lp3056
aS'ACTIONS'
p3057
a(lp3058
S'ToggleAction'
p3059
a(lp3060
S'actionGroup = None'
p3061
aaaS'UPGRADESAPPLIED'
p3062
a(lp3063
aaS'MODULE'
p3064
a(lp3065
S'name = ModuleEnginesFX'
p3066
aS'isEnabled = True'
p3067
aS'staged = False'
p3068
aS'flameout = False'
p3069
aS'EngineIgnited = False'
p3070
aS'engineShutdown = False'
p3071
aS'currentThrottle = 0'
p3072
aS'thrustPercentage = 100'
p3073
aS'manuallyOverridden = False'
p3074
aS'stagingEnabled = True'
p3075
aS'EVENTS'
p3076
a(lp3077
aS'ACTIONS'
p3078
a(lp3079
S'OnAction'
p3080
a(lp3081
S'actionGroup = None'
p3082
aaS'ShutdownAction'
p3083
a(lp3084
S'actionGroup = None'
p3085
aaS'ActivateAction'
p3086
a(lp3087
S'actionGroup = None'
p3088
aaaS'UPGRADESAPPLIED'
p3089
a(lp3090
aaS'MODULE'
p3091
a(lp3092
S'name = ModuleAnimateHeat'
p3093
aS'isEnabled = True'
p3094
aS'stagingEnabled = True'
p3095
aS'EVENTS'
p3096
a(lp3097
aS'ACTIONS'
p3098
a(lp3099
aS'UPGRADESAPPLIED'
p3100
a(lp3101
aaS'MODULE'
p3102
a(lp3103
S'name = ModuleAnimateGeneric'
p3104
aS'isEnabled = True'
p3105
aS'aniState = LOCKED'
p3106
aS'animSwitch = False'
p3107
aS'animTime = 1'
p3108
aS'animSpeed = 10'
p3109
aS'deployPercent = 100'
p3110
aS'animationIsDisabled = False'
p3111
aS'stagingEnabled = True'
p3112
aS'EVENTS'
p3113
a(lp3114
aS'ACTIONS'
p3115
a(lp3116
S'ToggleAction'
p3117
a(lp3118
S'actionGroup = None'
p3119
aaaS'UPGRADESAPPLIED'
p3120
a(lp3121
aaS'MODULE'
p3122
a(lp3123
S'name = FXModuleAnimateThrottle'
p3124
aS'isEnabled = True'
p3125
aS'animState = 0'
p3126
aS'stagingEnabled = True'
p3127
aS'EVENTS'
p3128
a(lp3129
aS'ACTIONS'
p3130
a(lp3131
aS'UPGRADESAPPLIED'
p3132
a(lp3133
aaS'MODULE'
p3134
a(lp3135
S'name = ModuleJettison'
p3136
aS'isEnabled = True'
p3137
aS'isJettisoned = True'
p3138
aS'shroudHideOverride = False'
p3139
aS'stagingEnabled = True'
p3140
aS'EVENTS'
p3141
a(lp3142
aS'ACTIONS'
p3143
a(lp3144
S'JettisonAction'
p3145
a(lp3146
S'actionGroup = None'
p3147
aaaS'UPGRADESAPPLIED'
p3148
a(lp3149
aaS'MODULE'
p3150
a(lp3151
S'name = FlagDecal'
p3152
aS'isEnabled = True'
p3153
aS'flagDisplayed = True'
p3154
aS'stagingEnabled = True'
p3155
aS'EVENTS'
p3156
a(lp3157
aS'ACTIONS'
p3158
a(lp3159
aS'UPGRADESAPPLIED'
p3160
a(lp3161
aaS'MODULE'
p3162
a(lp3163
S'name = ModuleAlternator'
p3164
aS'isEnabled = True'
p3165
aS'stagingEnabled = True'
p3166
aS'EVENTS'
p3167
a(lp3168
aS'ACTIONS'
p3169
a(lp3170
aS'UPGRADESAPPLIED'
p3171
a(lp3172
aaS'MODULE'
p3173
a(lp3174
S'name = ModuleTestSubject'
p3175
aS'isEnabled = True'
p3176
aS'stagingEnabled = True'
p3177
aS'EVENTS'
p3178
a(lp3179
aS'ACTIONS'
p3180
a(lp3181
aS'UPGRADESAPPLIED'
p3182
a(lp3183
aaS'MODULE'
p3184
a(lp3185
S'name = ModuleSurfaceFX'
p3186
aS'isEnabled = True'
p3187
aS'stagingEnabled = True'
p3188
aS'EVENTS'
p3189
a(lp3190
aS'ACTIONS'
p3191
a(lp3192
aS'UPGRADESAPPLIED'
p3193
a(lp3194
aaS'RESOURCE'
p3195
a(lp3196
S'name = IntakeAir'
p3197
aS'amount = 3.3999999999999999'
p3198
aS'maxAmount = 3.3999999999999999'
p3199
aS'flowState = True'
p3200
aS'isTweakable = False'
p3201
aS'hideFlow = False'
p3202
aS'isVisible = False'
p3203
aS'flowMode = Both'
p3204
aaaS'PART'
p3205
a(lp3206
S'name = mk3Cockpit.Shuttle'
p3207
aS'cid = 4294599246'
p3208
aS'uid = 1889657593'
p3209
aS'mid = 1081798322'
p3210
aS'launchID = 1'
p3211
aS'parent = 0'
p3212
aS'position = 0,3.75,0'
p3213
aS'rotation = 0,0,0,1'
p3214
aS'mirror = 1,1,1'
p3215
aS'symMethod = Radial'
p3216
aS'istg = -1'
p3217
aS'resPri = 0'
p3218
aS'dstg = 0'
p3219
aS'sqor = -1'
p3220
aS'sepI = -1'
p3221
aS'sidx = -1'
p3222
aS'attm = 0'
p3223
aS'srfN = , -1'
p3224
aS'attN = bottom, 0'
p3225
aS'attN = top, -1'
p3226
aS'mass = 3.5'
p3227
aS'shielded = False'
p3228
aS'temp = 311.3731548036501'
p3229
aS'tempExt = 314.65808388228726'
p3230
aS'tempExtUnexp = 314.71963290115167'
p3231
aS'expt = 0.5'
p3232
aS'state = 0'
p3233
aS'attached = True'
p3234
aS'autostrutMode = Off'
p3235
aS'rigidAttachment = False'
p3236
aS'flag = Squad/Flags/minimalistic'
p3237
aS'rTrf = mk3Cockpit.Shuttle'
p3238
aS'modCost = 0'
p3239
aS'crew = Valentina Kerman'
p3240
aS'EVENTS'
p3241
a(lp3242
aS'ACTIONS'
p3243
a(lp3244
aS'PARTDATA'
p3245
a(lp3246
aS'MODULE'
p3247
a(lp3248
S'name = ModuleCommand'
p3249
aS'isEnabled = True'
p3250
aS'hibernation = False'
p3251
aS'hibernateOnWarp = False'
p3252
aS'stagingEnabled = True'
p3253
aS'EVENTS'
p3254
a(lp3255
aS'ACTIONS'
p3256
a(lp3257
S'HibernateToggle'
p3258
a(lp3259
S'actionGroup = None'
p3260
aS'active = False'
p3261
aaaS'UPGRADESAPPLIED'
p3262
a(lp3263
aaS'MODULE'
p3264
a(lp3265
S'name = ModuleReactionWheel'
p3266
aS'isEnabled = True'
p3267
aS'actuatorModeCycle = 0'
p3268
aS'authorityLimiter = 100'
p3269
aS'stateString = Idle'
p3270
aS'stagingEnabled = True'
p3271
aS'WheelState = Active'
p3272
aS'EVENTS'
p3273
a(lp3274
aS'ACTIONS'
p3275
a(lp3276
S'CycleAction'
p3277
a(lp3278
S'actionGroup = None'
p3279
aaS'Activate'
p3280
a(lp3281
S'actionGroup = None'
p3282
aaS'Deactivate'
p3283
a(lp3284
S'actionGroup = None'
p3285
aaS'Toggle'
p3286
a(lp3287
S'actionGroup = None'
p3288
aaaS'UPGRADESAPPLIED'
p3289
a(lp3290
aaS'MODULE'
p3291
a(lp3292
S'name = ModuleScienceExperiment'
p3293
aS'isEnabled = True'
p3294
aS'Deployed = False'
p3295
aS'Inoperable = False'
p3296
aS'cooldownToGo = 0'
p3297
aS'stagingEnabled = True'
p3298
aS'EVENTS'
p3299
a(lp3300
aS'ACTIONS'
p3301
a(lp3302
S'DeployAction'
p3303
a(lp3304
S'actionGroup = None'
p3305
aaS'ResetAction'
p3306
a(lp3307
S'actionGroup = None'
p3308
aaaS'UPGRADESAPPLIED'
p3309
a(lp3310
aaS'MODULE'
p3311
a(lp3312
S'name = ModuleScienceContainer'
p3313
aS'isEnabled = True'
p3314
aS'stagingEnabled = True'
p3315
aS'EVENTS'
p3316
a(lp3317
aS'ACTIONS'
p3318
a(lp3319
S'CollectAllAction'
p3320
a(lp3321
S'actionGroup = None'
p3322
aaaS'UPGRADESAPPLIED'
p3323
a(lp3324
aaS'MODULE'
p3325
a(lp3326
S'name = FlagDecal'
p3327
aS'isEnabled = True'
p3328
aS'flagDisplayed = True'
p3329
aS'stagingEnabled = True'
p3330
aS'EVENTS'
p3331
a(lp3332
aS'ACTIONS'
p3333
a(lp3334
aS'UPGRADESAPPLIED'
p3335
a(lp3336
aaS'MODULE'
p3337
a(lp3338
S'name = ModuleAnimateGeneric'
p3339
aS'isEnabled = True'
p3340
aS'aniState = LOCKED'
p3341
aS'animSwitch = True'
p3342
aS'animTime = 0'
p3343
aS'animSpeed = 1'
p3344
aS'deployPercent = 100'
p3345
aS'animationIsDisabled = False'
p3346
aS'stagingEnabled = True'
p3347
aS'EVENTS'
p3348
a(lp3349
aS'ACTIONS'
p3350
a(lp3351
S'ToggleAction'
p3352
a(lp3353
S'actionGroup = Light'
p3354
aaaS'UPGRADESAPPLIED'
p3355
a(lp3356
aaS'MODULE'
p3357
a(lp3358
S'name = ModuleDataTransmitter'
p3359
aS'isEnabled = True'
p3360
aS'xmitIncomplete = False'
p3361
aS'stagingEnabled = True'
p3362
aS'canComm = True'
p3363
aS'EVENTS'
p3364
a(lp3365
aS'ACTIONS'
p3366
a(lp3367
S'StartTransmissionAction'
p3368
a(lp3369
S'actionGroup = None'
p3370
aS'active = False'
p3371
aaaS'UPGRADESAPPLIED'
p3372
a(lp3373
aaS'MODULE'
p3374
a(lp3375
S'name = ModuleTripLogger'
p3376
aS'isEnabled = True'
p3377
aS'stagingEnabled = True'
p3378
aS'EVENTS'
p3379
a(lp3380
aS'ACTIONS'
p3381
a(lp3382
aS'Log'
p3383
a(lp3384
S'flight = 0'
p3385
aaS'UPGRADESAPPLIED'
p3386
a(lp3387
aaS'RESOURCE'
p3388
a(lp3389
S'name = ElectricCharge'
p3390
aS'amount = 500'
p3391
aS'maxAmount = 500'
p3392
aS'flowState = True'
p3393
aS'isTweakable = True'
p3394
aS'hideFlow = False'
p3395
aS'isVisible = True'
p3396
aS'flowMode = Both'
p3397
aaS'RESOURCE'
p3398
a(lp3399
S'name = MonoPropellant'
p3400
aS'amount = 100'
p3401
aS'maxAmount = 100'
p3402
aS'flowState = True'
p3403
aS'isTweakable = True'
p3404
aS'hideFlow = False'
p3405
aS'isVisible = True'
p3406
aS'flowMode = Both'
p3407
aaaS'ACTIONGROUPS'
p3408
a(lp3409
S'Stage = False, 0'
p3410
aS'Gear = False, 0'
p3411
aS'Light = False, 0'
p3412
aS'RCS = False, 0'
p3413
aS'SAS = False, 0'
p3414
aS'Brakes = False, 0'
p3415
aS'Abort = False, 0'
p3416
aS'Custom01 = False, 0'
p3417
aS'Custom02 = False, 0'
p3418
aS'Custom03 = False, 0'
p3419
aS'Custom04 = False, 0'
p3420
aS'Custom05 = False, 0'
p3421
aS'Custom06 = False, 0'
p3422
aS'Custom07 = False, 0'
p3423
aS'Custom08 = False, 0'
p3424
aS'Custom09 = False, 0'
p3425
aS'Custom10 = False, 0'
p3426
aaS'DISCOVERY'
p3427
a(lp3428
S'state = -1'
p3429
aS'lastObservedTime = 0'
p3430
aS'lifetime = Infinity'
p3431
aS'refTime = Infinity'
p3432
aS'size = 2'
p3433
aaS'FLIGHTPLAN'
p3434
a(lp3435
aS'CTRLSTATE'
p3436
a(lp3437
S'pitch = 0'
p3438
aS'yaw = 0'
p3439
aS'roll = 0'
p3440
aS'trimPitch = 0'
p3441
aS'trimYaw = 0'
p3442
aS'trimRoll = 0'
p3443
aS'mainThrottle = 0'
p3444
aaS'VESSELMODULES'
p3445
a(lp3446
S'FlightIntegrator'
p3447
a(lp3448
aS'CommNetVessel'
p3449
a(lp3450
S'controlState = KerbalFull'
p3451
aS'canComm = True'
p3452
aaaa(lp3453
S'pid = 6675f95439904b7381c062f8763368fb'
p3454
aS'name = phoht'
p3455
aS'type = Plane'
p3456
aS'sit = PRELAUNCH'
p3457
aS'landed = True'
p3458
aS'landedAt = KSC_Runway_09'
p3459
aS'splashed = False'
p3460
aS'met = 0'
p3461
aS'lct = 160.08000000000808'
p3462
aS'lastUT = 160.08000000000808'
p3463
aS'root = 0'
p3464
aS'lat = -0.048506233929771221'
p3465
aS'lon = -74.724334083366145'
p3466
aS'alt = 70.835887284833007'
p3467
aS'hgt = 1.57632542'
p3468
aS'nrm = -0.000177811366,-0.00451913476,-0.999989927'
p3469
aS'rot = 0.0960101783,-0.0966390967,-0.703160763,0.697859585'
p3470
aS'CoM = 1.67638063E-06,-1.3198421,0.0101844072'
p3471
aS'stg = 1'
p3472
aS'prst = False'
p3473
aS'ref = 3117924698'
p3474
aS'ctrl = True'
p3475
aS'cPch = 0.258'
p3476
aS'cHdg = 1.540001'
p3477
aS'cMod = 0'
p3478
aS'ORBIT'
p3479
a(lp3480
S'SMA = 300818.26604050549'
p3481
aS'ECC = 0.99479520453009784'
p3482
aS'INC = 0.04850545214876277'
p3483
aS'LPE = 89.862102403680893'
p3484
aS'LAN = 108.08769842003892'
p3485
aS'MNA = -3.1415921705324417'
p3486
aS'EPH = 160.08000000000808'
p3487
aS'REF = 1'
p3488
aaS'PART'
p3489
a(lp3490
S'name = mk2Cockpit.Standard'
p3491
aS'cid = 4294475966'
p3492
aS'uid = 3117924698'
p3493
aS'mid = 543467446'
p3494
aS'launchID = 2'
p3495
aS'parent = 0'
p3496
aS'position = 0,0,0'
p3497
aS'rotation = 0,0,0,1.00000024'
p3498
aS'mirror = 1,1,1'
p3499
aS'symMethod = Mirror'
p3500
aS'istg = -1'
p3501
aS'resPri = 0'
p3502
aS'dstg = 0'
p3503
aS'sqor = -1'
p3504
aS'sepI = -1'
p3505
aS'sidx = -1'
p3506
aS'attm = 0'
p3507
aS'srfN = , -1'
p3508
aS'attN = bottom, 1'
p3509
aS'mass = 2'
p3510
aS'shielded = False'
p3511
aS'temp = 313.5895472991885'
p3512
aS'tempExt = 313.96930266519092'
p3513
aS'tempExtUnexp = 313.96907988289172'
p3514
aS'expt = 0.5'
p3515
aS'state = 0'
p3516
aS'attached = True'
p3517
aS'autostrutMode = Off'
p3518
aS'rigidAttachment = False'
p3519
aS'flag = Squad/Flags/minimalistic'
p3520
aS'rTrf = mk2Cockpit.Standard'
p3521
aS'modCost = 0'
p3522
aS'crew = Shelford Kerman'
p3523
aS'crew = Samfield Kerman'
p3524
aS'EVENTS'
p3525
a(lp3526
aS'ACTIONS'
p3527
a(lp3528
aS'PARTDATA'
p3529
a(lp3530
aS'MODULE'
p3531
a(lp3532
S'name = ModuleCommand'
p3533
aS'isEnabled = True'
p3534
aS'hibernation = False'
p3535
aS'hibernateOnWarp = False'
p3536
aS'stagingEnabled = True'
p3537
aS'EVENTS'
p3538
a(lp3539
aS'ACTIONS'
p3540
a(lp3541
S'HibernateToggle'
p3542
a(lp3543
S'actionGroup = None'
p3544
aS'active = False'
p3545
aaaS'UPGRADESAPPLIED'
p3546
a(lp3547
aaS'MODULE'
p3548
a(lp3549
S'name = ModuleReactionWheel'
p3550
aS'isEnabled = True'
p3551
aS'actuatorModeCycle = 0'
p3552
aS'authorityLimiter = 100'
p3553
aS'stateString = Idle'
p3554
aS'stagingEnabled = True'
p3555
aS'WheelState = Active'
p3556
aS'EVENTS'
p3557
a(lp3558
aS'ACTIONS'
p3559
a(lp3560
S'CycleAction'
p3561
a(lp3562
S'actionGroup = None'
p3563
aaS'Activate'
p3564
a(lp3565
S'actionGroup = None'
p3566
aaS'Deactivate'
p3567
a(lp3568
S'actionGroup = None'
p3569
aaS'Toggle'
p3570
a(lp3571
S'actionGroup = None'
p3572
aaaS'UPGRADESAPPLIED'
p3573
a(lp3574
aaS'MODULE'
p3575
a(lp3576
S'name = ModuleScienceExperiment'
p3577
aS'isEnabled = True'
p3578
aS'Deployed = False'
p3579
aS'Inoperable = False'
p3580
aS'cooldownToGo = 0'
p3581
aS'stagingEnabled = True'
p3582
aS'EVENTS'
p3583
a(lp3584
aS'ACTIONS'
p3585
a(lp3586
S'DeployAction'
p3587
a(lp3588
S'actionGroup = None'
p3589
aaS'ResetAction'
p3590
a(lp3591
S'actionGroup = None'
p3592
aaaS'UPGRADESAPPLIED'
p3593
a(lp3594
aaS'MODULE'
p3595
a(lp3596
S'name = ModuleScienceContainer'
p3597
aS'isEnabled = True'
p3598
aS'stagingEnabled = True'
p3599
aS'EVENTS'
p3600
a(lp3601
aS'ACTIONS'
p3602
a(lp3603
S'CollectAllAction'
p3604
a(lp3605
S'actionGroup = None'
p3606
aaaS'UPGRADESAPPLIED'
p3607
a(lp3608
aaS'MODULE'
p3609
a(lp3610
S'name = FlagDecal'
p3611
aS'isEnabled = True'
p3612
aS'flagDisplayed = True'
p3613
aS'stagingEnabled = True'
p3614
aS'EVENTS'
p3615
a(lp3616
aS'ACTIONS'
p3617
a(lp3618
aS'UPGRADESAPPLIED'
p3619
a(lp3620
aaS'MODULE'
p3621
a(lp3622
S'name = ModuleAnimateGeneric'
p3623
aS'isEnabled = True'
p3624
aS'aniState = LOCKED'
p3625
aS'animSwitch = True'
p3626
aS'animTime = 0'
p3627
aS'animSpeed = 1'
p3628
aS'deployPercent = 100'
p3629
aS'animationIsDisabled = False'
p3630
aS'stagingEnabled = True'
p3631
aS'EVENTS'
p3632
a(lp3633
aS'ACTIONS'
p3634
a(lp3635
S'ToggleAction'
p3636
a(lp3637
S'actionGroup = Light'
p3638
aaaS'UPGRADESAPPLIED'
p3639
a(lp3640
aaS'MODULE'
p3641
a(lp3642
S'name = ModuleLiftingSurface'
p3643
aS'isEnabled = True'
p3644
aS'stagingEnabled = True'
p3645
aS'EVENTS'
p3646
a(lp3647
aS'ACTIONS'
p3648
a(lp3649
aS'UPGRADESAPPLIED'
p3650
a(lp3651
aaS'MODULE'
p3652
a(lp3653
S'name = ModuleDataTransmitter'
p3654
aS'isEnabled = True'
p3655
aS'xmitIncomplete = False'
p3656
aS'stagingEnabled = True'
p3657
aS'canComm = True'
p3658
aS'EVENTS'
p3659
a(lp3660
aS'ACTIONS'
p3661
a(lp3662
S'StartTransmissionAction'
p3663
a(lp3664
S'actionGroup = None'
p3665
aS'active = False'
p3666
aaaS'UPGRADESAPPLIED'
p3667
a(lp3668
aaS'MODULE'
p3669
a(lp3670
S'name = ModuleTripLogger'
p3671
aS'isEnabled = True'
p3672
aS'stagingEnabled = True'
p3673
aS'EVENTS'
p3674
a(lp3675
aS'ACTIONS'
p3676
a(lp3677
aS'Log'
p3678
a(lp3679
S'flight = 0'
p3680
aaS'UPGRADESAPPLIED'
p3681
a(lp3682
aaS'RESOURCE'
p3683
a(lp3684
S'name = ElectricCharge'
p3685
aS'amount = 150'
p3686
aS'maxAmount = 150'
p3687
aS'flowState = True'
p3688
aS'isTweakable = True'
p3689
aS'hideFlow = False'
p3690
aS'isVisible = True'
p3691
aS'flowMode = Both'
p3692
aaS'RESOURCE'
p3693
a(lp3694
S'name = MonoPropellant'
p3695
aS'amount = 15'
p3696
aS'maxAmount = 15'
p3697
aS'flowState = True'
p3698
aS'isTweakable = True'
p3699
aS'hideFlow = False'
p3700
aS'isVisible = True'
p3701
aS'flowMode = Both'
p3702
aaaS'PART'
p3703
a(lp3704
S'name = mk2.1m.Bicoupler'
p3705
aS'cid = 4294465164'
p3706
aS'uid = 200533305'
p3707
aS'mid = 543467446'
p3708
aS'launchID = 2'
p3709
aS'parent = 0'
p3710
aS'position = 0,-2.1874997615814209,2.384185791015625E-07'
p3711
aS'rotation = 0,1.00000024,0,0'
p3712
aS'mirror = 1,1,1'
p3713
aS'symMethod = Mirror'
p3714
aS'istg = -1'
p3715
aS'resPri = 0'
p3716
aS'dstg = 0'
p3717
aS'sqor = -1'
p3718
aS'sepI = -1'
p3719
aS'sidx = -1'
p3720
aS'attm = 0'
p3721
aS'srfN = srfAttach, -1'
p3722
aS'attN = top, 0'
p3723
aS'attN = bottom01, 6'
p3724
aS'attN = bottom02, 7'
p3725
aS'mass = 0.289999992'
p3726
aS'shielded = False'
p3727
aS'temp = 313.57643617452578'
p3728
aS'tempExt = 313.63468215933966'
p3729
aS'tempExtUnexp = 313.63463173452385'
p3730
aS'expt = 0.5'
p3731
aS'state = 0'
p3732
aS'attached = True'
p3733
aS'autostrutMode = Off'
p3734
aS'rigidAttachment = False'
p3735
aS'flag = Squad/Flags/minimalistic'
p3736
aS'rTrf = mk2.1m.Bicoupler'
p3737
aS'modCost = 0'
p3738
aS'EVENTS'
p3739
a(lp3740
aS'ACTIONS'
p3741
a(lp3742
aS'PARTDATA'
p3743
a(lp3744
aS'MODULE'
p3745
a(lp3746
S'name = ModuleLiftingSurface'
p3747
aS'isEnabled = True'
p3748
aS'stagingEnabled = True'
p3749
aS'EVENTS'
p3750
a(lp3751
aS'ACTIONS'
p3752
a(lp3753
aS'UPGRADESAPPLIED'
p3754
a(lp3755
aaS'RESOURCE'
p3756
a(lp3757
S'name = LiquidFuel'
p3758
aS'amount = 180'
p3759
aS'maxAmount = 180'
p3760
aS'flowState = True'
p3761
aS'isTweakable = True'
p3762
aS'hideFlow = False'
p3763
aS'isVisible = True'
p3764
aS'flowMode = Both'
p3765
aaS'RESOURCE'
p3766
a(lp3767
S'name = Oxidizer'
p3768
aS'amount = 220'
p3769
aS'maxAmount = 220'
p3770
aS'flowState = True'
p3771
aS'isTweakable = True'
p3772
aS'hideFlow = False'
p3773
aS'isVisible = True'
p3774
aS'flowMode = Both'
p3775
aaaS'PART'
p3776
a(lp3777
S'name = pointyNoseConeB'
p3778
aS'cid = 4294433918'
p3779
aS'uid = 216996347'
p3780
aS'mid = 543467446'
p3781
aS'launchID = 2'
p3782
aS'parent = 1'
p3783
aS'position = -1.8832724094390869,-2.1677000522613525,2.384185791015625E-07'
p3784
aS'rotation = 0.707106948,0,-0.707106948,0'
p3785
aS'mirror = 1,1,1'
p3786
aS'symMethod = Mirror'
p3787
aS'istg = -1'
p3788
aS'resPri = 0'
p3789
aS'dstg = 0'
p3790
aS'sqor = -1'
p3791
aS'sepI = -1'
p3792
aS'sidx = -1'
p3793
aS'attm = 1'
p3794
aS'sym = 4'
p3795
aS'srfN = srfAttach, 1'
p3796
aS'attN = bottom01, 3'
p3797
aS'mass = 0.075000003'
p3798
aS'shielded = False'
p3799
aS'temp = 313.57568074280482'
p3800
aS'tempExt = 313.5842358149693'
p3801
aS'tempExtUnexp = 313.58426438547201'
p3802
aS'expt = 0.5'
p3803
aS'state = 0'
p3804
aS'attached = True'
p3805
aS'autostrutMode = Off'
p3806
aS'rigidAttachment = False'
p3807
aS'flag = Squad/Flags/minimalistic'
p3808
aS'rTrf = pointyNoseConeB'
p3809
aS'modCost = 0'
p3810
aS'EVENTS'
p3811
a(lp3812
aS'ACTIONS'
p3813
a(lp3814
aS'PARTDATA'
p3815
a(lp3816
aS'MODULE'
p3817
a(lp3818
S'name = ModuleAnimateHeat'
p3819
aS'isEnabled = True'
p3820
aS'stagingEnabled = True'
p3821
aS'EVENTS'
p3822
a(lp3823
aS'ACTIONS'
p3824
a(lp3825
aS'UPGRADESAPPLIED'
p3826
a(lp3827
aaaS'PART'
p3828
a(lp3829
S'name = shockConeIntake'
p3830
aS'cid = 4294396232'
p3831
aS'uid = 1193537453'
p3832
aS'mid = 543467446'
p3833
aS'launchID = 2'
p3834
aS'parent = 2'
p3835
aS'position = -1.8832724094390869,-0.91769969463348389,1.1920928955078125E-07'
p3836
aS'rotation = 0,0,0,1.00000036'
p3837
aS'mirror = 1,1,1'
p3838
aS'symMethod = Mirror'
p3839
aS'istg = -1'
p3840
aS'resPri = 0'
p3841
aS'dstg = 0'
p3842
aS'sqor = -1'
p3843
aS'sepI = -1'
p3844
aS'sidx = -1'
p3845
aS'attm = 0'
p3846
aS'sym = 5'
p3847
aS'srfN = , -1'
p3848
aS'attN = bottom, 2'
p3849
aS'mass = 0.119999997'
p3850
aS'shielded = False'
p3851
aS'temp = 313.57409950643921'
p3852
aS'tempExt = 313.48900602772932'
p3853
aS'tempExtUnexp = 313.48907346880918'
p3854
aS'expt = 0.5'
p3855
aS'state = 0'
p3856
aS'attached = True'
p3857
aS'autostrutMode = Off'
p3858
aS'rigidAttachment = False'
p3859
aS'flag = Squad/Flags/minimalistic'
p3860
aS'rTrf = shockConeIntake'
p3861
aS'modCost = 0'
p3862
aS'EVENTS'
p3863
a(lp3864
aS'ACTIONS'
p3865
a(lp3866
aS'PARTDATA'
p3867
a(lp3868
aS'MODULE'
p3869
a(lp3870
S'name = ModuleResourceIntake'
p3871
aS'isEnabled = True'
p3872
aS'intakeEnabled = True'
p3873
aS'stagingEnabled = True'
p3874
aS'EVENTS'
p3875
a(lp3876
aS'ACTIONS'
p3877
a(lp3878
S'ToggleAction'
p3879
a(lp3880
S'actionGroup = None'
p3881
aaaS'UPGRADESAPPLIED'
p3882
a(lp3883
aaS'MODULE'
p3884
a(lp3885
S'name = ModuleAnimateHeat'
p3886
aS'isEnabled = True'
p3887
aS'stagingEnabled = True'
p3888
aS'EVENTS'
p3889
a(lp3890
aS'ACTIONS'
p3891
a(lp3892
aS'UPGRADESAPPLIED'
p3893
a(lp3894
aaS'RESOURCE'
p3895
a(lp3896
S'name = IntakeAir'
p3897
aS'amount = 2'
p3898
aS'maxAmount = 2'
p3899
aS'flowState = True'
p3900
aS'isTweakable = False'
p3901
aS'hideFlow = False'
p3902
aS'isVisible = False'
p3903
aS'flowMode = Both'
p3904
aaaS'PART'
p3905
a(lp3906
S'name = pointyNoseConeB'
p3907
aS'cid = 4294433652'
p3908
aS'uid = 3301756380'
p3909
aS'mid = 543467446'
p3910
aS'launchID = 2'
p3911
aS'parent = 1'
p3912
aS'position = 1.8832721710205078,-2.1677002906799316,2.384185791015625E-07'
p3913
aS'rotation = 0.707106948,0,0.707106948,-8.42937098E-08'
p3914
aS'mirror = 1,1,1'
p3915
aS'symMethod = Mirror'
p3916
aS'istg = -1'
p3917
aS'resPri = 0'
p3918
aS'dstg = 0'
p3919
aS'sqor = -1'
p3920
aS'sepI = -1'
p3921
aS'sidx = -1'
p3922
aS'attm = 1'
p3923
aS'sym = 2'
p3924
aS'srfN = srfAttach, 1'
p3925
aS'attN = bottom01, 5'
p3926
aS'mass = 0.075000003'
p3927
aS'shielded = False'
p3928
aS'temp = 313.575411148976'
p3929
aS'tempExt = 313.57505622426697'
p3930
aS'tempExtUnexp = 313.57509333795014'
p3931
aS'expt = 0.5'
p3932
aS'state = 0'
p3933
aS'attached = True'
p3934
aS'autostrutMode = Off'
p3935
aS'rigidAttachment = False'
p3936
aS'flag = Squad/Flags/minimalistic'
p3937
aS'rTrf = pointyNoseConeB'
p3938
aS'modCost = 0'
p3939
aS'EVENTS'
p3940
a(lp3941
aS'ACTIONS'
p3942
a(lp3943
aS'PARTDATA'
p3944
a(lp3945
aS'MODULE'
p3946
a(lp3947
S'name = ModuleAnimateHeat'
p3948
aS'isEnabled = True'
p3949
aS'stagingEnabled = True'
p3950
aS'EVENTS'
p3951
a(lp3952
aS'ACTIONS'
p3953
a(lp3954
aS'UPGRADESAPPLIED'
p3955
a(lp3956
aaaS'PART'
p3957
a(lp3958
S'name = shockConeIntake'
p3959
aS'cid = 4294394774'
p3960
aS'uid = 2163047201'
p3961
aS'mid = 543467446'
p3962
aS'launchID = 2'
p3963
aS'parent = 4'
p3964
aS'position = 1.8832721710205078,-0.91769921779632568,1.1920928955078125E-07'
p3965
aS'rotation = 8.42937098E-08,5.02429663E-15,0,1.00000036'
p3966
aS'mirror = 1,1,1'
p3967
aS'symMethod = Mirror'
p3968
aS'istg = -1'
p3969
aS'resPri = 0'
p3970
aS'dstg = 0'
p3971
aS'sqor = -1'
p3972
aS'sepI = -1'
p3973
aS'sidx = -1'
p3974
aS'attm = 0'
p3975
aS'sym = 3'
p3976
aS'srfN = , -1'
p3977
aS'attN = bottom, 4'
p3978
aS'mass = 0.119999997'
p3979
aS'shielded = False'
p3980
aS'temp = 313.57403306862057'
p3981
aS'tempExt = 313.4842064040169'
p3982
aS'tempExtUnexp = 313.48428472051461'
p3983
aS'expt = 0.5'
p3984
aS'state = 0'
p3985
aS'attached = True'
p3986
aS'autostrutMode = Off'
p3987
aS'rigidAttachment = False'
p3988
aS'flag = Squad/Flags/minimalistic'
p3989
aS'rTrf = shockConeIntake'
p3990
aS'modCost = 0'
p3991
aS'EVENTS'
p3992
a(lp3993
aS'ACTIONS'
p3994
a(lp3995
aS'PARTDATA'
p3996
a(lp3997
aS'MODULE'
p3998
a(lp3999
S'name = ModuleResourceIntake'
p4000
aS'isEnabled = True'
p4001
aS'intakeEnabled = True'
p4002
aS'stagingEnabled = True'
p4003
aS'EVENTS'
p4004
a(lp4005
aS'ACTIONS'
p4006
a(lp4007
S'ToggleAction'
p4008
a(lp4009
S'actionGroup = None'
p4010
aaaS'UPGRADESAPPLIED'
p4011
a(lp4012
aaS'MODULE'
p4013
a(lp4014
S'name = ModuleAnimateHeat'
p4015
aS'isEnabled = True'
p4016
aS'stagingEnabled = True'
p4017
aS'EVENTS'
p4018
a(lp4019
aS'ACTIONS'
p4020
a(lp4021
aS'UPGRADESAPPLIED'
p4022
a(lp4023
aaS'RESOURCE'
p4024
a(lp4025
S'name = IntakeAir'
p4026
aS'amount = 2'
p4027
aS'maxAmount = 2'
p4028
aS'flowState = True'
p4029
aS'isTweakable = False'
p4030
aS'hideFlow = False'
p4031
aS'isVisible = False'
p4032
aS'flowMode = Both'
p4033
aaaS'PART'
p4034
a(lp4035
S'name = turboJet'
p4036
aS'cid = 4294406276'
p4037
aS'uid = 1751744339'
p4038
aS'mid = 543467446'
p4039
aS'launchID = 2'
p4040
aS'parent = 1'
p4041
aS'position = -0.62499970197677612,-3.125,4.76837158203125E-07'
p4042
aS'rotation = 0,0,0,1.00000024'
p4043
aS'mirror = 1,1,1'
p4044
aS'symMethod = Mirror'
p4045
aS'istg = 0'
p4046
aS'resPri = 0'
p4047
aS'dstg = 0'
p4048
aS'sqor = 0'
p4049
aS'sepI = -1'
p4050
aS'sidx = 0'
p4051
aS'attm = 0'
p4052
aS'sym = 7'
p4053
aS'srfN = , -1'
p4054
aS'attN = top, 1'
p4055
aS'mass = 1.20000005'
p4056
aS'shielded = False'
p4057
aS'temp = 313.57988429118615'
p4058
aS'tempExt = 313.68358107751709'
p4059
aS'tempExtUnexp = 313.68348281071121'
p4060
aS'expt = 0.5'
p4061
aS'state = 0'
p4062
aS'attached = True'
p4063
aS'autostrutMode = Off'
p4064
aS'rigidAttachment = False'
p4065
aS'flag = Squad/Flags/minimalistic'
p4066
aS'rTrf = turboJet'
p4067
aS'modCost = 0'
p4068
aS'EVENTS'
p4069
a(lp4070
aS'ACTIONS'
p4071
a(lp4072
aS'PARTDATA'
p4073
a(lp4074
aS'MODULE'
p4075
a(lp4076
S'name = MultiModeEngine'
p4077
aS'isEnabled = True'
p4078
aS'runningPrimary = True'
p4079
aS'autoSwitch = False'
p4080
aS'stagingEnabled = True'
p4081
aS'EVENTS'
p4082
a(lp4083
aS'ACTIONS'
p4084
a(lp4085
S'ModeAction'
p4086
a(lp4087
S'actionGroup = None'
p4088
aaS'ShutdownAction'
p4089
a(lp4090
S'actionGroup = None'
p4091
aaS'ActivateAction'
p4092
a(lp4093
S'actionGroup = None'
p4094
aaS'OnAction'
p4095
a(lp4096
S'actionGroup = None'
p4097
aaaS'UPGRADESAPPLIED'
p4098
a(lp4099
aaS'MODULE'
p4100
a(lp4101
S'name = ModuleEnginesFX'
p4102
aS'isEnabled = True'
p4103
aS'staged = False'
p4104
aS'flameout = False'
p4105
aS'EngineIgnited = False'
p4106
aS'engineShutdown = False'
p4107
aS'currentThrottle = 0'
p4108
aS'thrustPercentage = 100'
p4109
aS'manuallyOverridden = False'
p4110
aS'stagingEnabled = True'
p4111
aS'EVENTS'
p4112
a(lp4113
aS'ACTIONS'
p4114
a(lp4115
S'OnAction'
p4116
a(lp4117
S'actionGroup = None'
p4118
aS'active = False'
p4119
aaS'ShutdownAction'
p4120
a(lp4121
S'actionGroup = None'
p4122
aS'active = False'
p4123
aaS'ActivateAction'
p4124
a(lp4125
S'actionGroup = None'
p4126
aS'active = False'
p4127
aaaS'UPGRADESAPPLIED'
p4128
a(lp4129
aaS'MODULE'
p4130
a(lp4131
S'name = ModuleEnginesFX'
p4132
aS'isEnabled = False'
p4133
aS'staged = False'
p4134
aS'flameout = False'
p4135
aS'EngineIgnited = False'
p4136
aS'engineShutdown = False'
p4137
aS'currentThrottle = 0'
p4138
aS'thrustPercentage = 100'
p4139
aS'manuallyOverridden = True'
p4140
aS'stagingEnabled = True'
p4141
aS'EVENTS'
p4142
a(lp4143
aS'ACTIONS'
p4144
a(lp4145
S'OnAction'
p4146
a(lp4147
S'actionGroup = None'
p4148
aaS'ShutdownAction'
p4149
a(lp4150
S'actionGroup = None'
p4151
aaS'ActivateAction'
p4152
a(lp4153
S'actionGroup = None'
p4154
aaaS'UPGRADESAPPLIED'
p4155
a(lp4156
aaS'MODULE'
p4157
a(lp4158
S'name = FXModuleAnimateThrottle'
p4159
aS'isEnabled = True'
p4160
aS'animState = 0'
p4161
aS'stagingEnabled = True'
p4162
aS'EVENTS'
p4163
a(lp4164
aS'ACTIONS'
p4165
a(lp4166
aS'UPGRADESAPPLIED'
p4167
a(lp4168
aaS'MODULE'
p4169
a(lp4170
S'name = FXModuleAnimateThrottle'
p4171
aS'isEnabled = True'
p4172
aS'animState = 0'
p4173
aS'stagingEnabled = True'
p4174
aS'EVENTS'
p4175
a(lp4176
aS'ACTIONS'
p4177
a(lp4178
aS'UPGRADESAPPLIED'
p4179
a(lp4180
aaS'MODULE'
p4181
a(lp4182
S'name = FXModuleAnimateThrottle'
p4183
aS'isEnabled = True'
p4184
aS'animState = 0'
p4185
aS'stagingEnabled = True'
p4186
aS'EVENTS'
p4187
a(lp4188
aS'ACTIONS'
p4189
a(lp4190
aS'UPGRADESAPPLIED'
p4191
a(lp4192
aaS'MODULE'
p4193
a(lp4194
S'name = ModuleGimbal'
p4195
aS'isEnabled = True'
p4196
aS'gimbalLock = False'
p4197
aS'gimbalLimiter = 100'
p4198
aS'currentShowToggles = False'
p4199
aS'enableYaw = True'
p4200
aS'enablePitch = True'
p4201
aS'enableRoll = True'
p4202
aS'gimbalActive = False'
p4203
aS'stagingEnabled = True'
p4204
aS'EVENTS'
p4205
a(lp4206
aS'ACTIONS'
p4207
a(lp4208
S'ToggleAction'
p4209
a(lp4210
S'actionGroup = None'
p4211
aaS'LockAction'
p4212
a(lp4213
S'actionGroup = None'
p4214
aaS'FreeAction'
p4215
a(lp4216
S'actionGroup = None'
p4217
aaS'TogglePitchAction'
p4218
a(lp4219
S'actionGroup = None'
p4220
aaS'ToggleYawAction'
p4221
a(lp4222
S'actionGroup = None'
p4223
aaS'ToggleRollAction'
p4224
a(lp4225
S'actionGroup = None'
p4226
aaaS'UPGRADESAPPLIED'
p4227
a(lp4228
aaS'MODULE'
p4229
a(lp4230
S'name = FXModuleConstrainPosition'
p4231
aS'isEnabled = True'
p4232
aS'stagingEnabled = True'
p4233
aS'EVENTS'
p4234
a(lp4235
aS'ACTIONS'
p4236
a(lp4237
aS'UPGRADESAPPLIED'
p4238
a(lp4239
aaS'MODULE'
p4240
a(lp4241
S'name = ModuleAlternator'
p4242
aS'isEnabled = True'
p4243
aS'stagingEnabled = True'
p4244
aS'EVENTS'
p4245
a(lp4246
aS'ACTIONS'
p4247
a(lp4248
aS'UPGRADESAPPLIED'
p4249
a(lp4250
aaS'MODULE'
p4251
a(lp4252
S'name = ModuleAlternator'
p4253
aS'isEnabled = True'
p4254
aS'stagingEnabled = True'
p4255
aS'EVENTS'
p4256
a(lp4257
aS'ACTIONS'
p4258
a(lp4259
aS'UPGRADESAPPLIED'
p4260
a(lp4261
aaS'MODULE'
p4262
a(lp4263
S'name = ModuleSurfaceFX'
p4264
aS'isEnabled = True'
p4265
aS'stagingEnabled = True'
p4266
aS'EVENTS'
p4267
a(lp4268
aS'ACTIONS'
p4269
a(lp4270
aS'UPGRADESAPPLIED'
p4271
a(lp4272
aaS'MODULE'
p4273
a(lp4274
S'name = ModuleSurfaceFX'
p4275
aS'isEnabled = True'
p4276
aS'stagingEnabled = True'
p4277
aS'EVENTS'
p4278
a(lp4279
aS'ACTIONS'
p4280
a(lp4281
aS'UPGRADESAPPLIED'
p4282
a(lp4283
aaS'MODULE'
p4284
a(lp4285
S'name = ModuleTestSubject'
p4286
aS'isEnabled = True'
p4287
aS'stagingEnabled = True'
p4288
aS'EVENTS'
p4289
a(lp4290
aS'ACTIONS'
p4291
a(lp4292
aS'UPGRADESAPPLIED'
p4293
a(lp4294
aaaS'PART'
p4295
a(lp4296
S'name = turboJet'
p4297
aS'cid = 4294395052'
p4298
aS'uid = 3710765931'
p4299
aS'mid = 543467446'
p4300
aS'launchID = 2'
p4301
aS'parent = 1'
p4302
aS'position = 0.6249997615814209,-3.125,4.76837158203125E-07'
p4303
aS'rotation = 8.42937098E-08,0,0,1.00000024'
p4304
aS'mirror = 1,1,1'
p4305
aS'symMethod = Mirror'
p4306
aS'istg = 0'
p4307
aS'resPri = 0'
p4308
aS'dstg = 0'
p4309
aS'sqor = 0'
p4310
aS'sepI = -1'
p4311
aS'sidx = 0'
p4312
aS'attm = 0'
p4313
aS'sym = 6'
p4314
aS'srfN = , -1'
p4315
aS'attN = top, 1'
p4316
aS'mass = 1.20000005'
p4317
aS'shielded = False'
p4318
aS'temp = 313.58525770649902'
p4319
aS'tempExt = 313.8341522152727'
p4320
aS'tempExtUnexp = 313.83399798639329'
p4321
aS'expt = 0.5'
p4322
aS'state = 0'
p4323
aS'attached = True'
p4324
aS'autostrutMode = Off'
p4325
aS'rigidAttachment = False'
p4326
aS'flag = Squad/Flags/minimalistic'
p4327
aS'rTrf = turboJet'
p4328
aS'modCost = 0'
p4329
aS'EVENTS'
p4330
a(lp4331
aS'ACTIONS'
p4332
a(lp4333
aS'PARTDATA'
p4334
a(lp4335
aS'MODULE'
p4336
a(lp4337
S'name = MultiModeEngine'
p4338
aS'isEnabled = True'
p4339
aS'runningPrimary = True'
p4340
aS'autoSwitch = False'
p4341
aS'stagingEnabled = True'
p4342
aS'EVENTS'
p4343
a(lp4344
aS'ACTIONS'
p4345
a(lp4346
S'ModeAction'
p4347
a(lp4348
S'actionGroup = None'
p4349
aaS'ShutdownAction'
p4350
a(lp4351
S'actionGroup = None'
p4352
aaS'ActivateAction'
p4353
a(lp4354
S'actionGroup = None'
p4355
aaS'OnAction'
p4356
a(lp4357
S'actionGroup = None'
p4358
aaaS'UPGRADESAPPLIED'
p4359
a(lp4360
aaS'MODULE'
p4361
a(lp4362
S'name = ModuleEnginesFX'
p4363
aS'isEnabled = True'
p4364
aS'staged = False'
p4365
aS'flameout = False'
p4366
aS'EngineIgnited = False'
p4367
aS'engineShutdown = False'
p4368
aS'currentThrottle = 0'
p4369
aS'thrustPercentage = 100'
p4370
aS'manuallyOverridden = False'
p4371
aS'stagingEnabled = True'
p4372
aS'EVENTS'
p4373
a(lp4374
aS'ACTIONS'
p4375
a(lp4376
S'OnAction'
p4377
a(lp4378
S'actionGroup = None'
p4379
aS'active = False'
p4380
aaS'ShutdownAction'
p4381
a(lp4382
S'actionGroup = None'
p4383
aS'active = False'
p4384
aaS'ActivateAction'
p4385
a(lp4386
S'actionGroup = None'
p4387
aS'active = False'
p4388
aaaS'UPGRADESAPPLIED'
p4389
a(lp4390
aaS'MODULE'
p4391
a(lp4392
S'name = ModuleEnginesFX'
p4393
aS'isEnabled = False'
p4394
aS'staged = False'
p4395
aS'flameout = False'
p4396
aS'EngineIgnited = False'
p4397
aS'engineShutdown = False'
p4398
aS'currentThrottle = 0'
p4399
aS'thrustPercentage = 100'
p4400
aS'manuallyOverridden = True'
p4401
aS'stagingEnabled = True'
p4402
aS'EVENTS'
p4403
a(lp4404
aS'ACTIONS'
p4405
a(lp4406
S'OnAction'
p4407
a(lp4408
S'actionGroup = None'
p4409
aaS'ShutdownAction'
p4410
a(lp4411
S'actionGroup = None'
p4412
aaS'ActivateAction'
p4413
a(lp4414
S'actionGroup = None'
p4415
aaaS'UPGRADESAPPLIED'
p4416
a(lp4417
aaS'MODULE'
p4418
a(lp4419
S'name = FXModuleAnimateThrottle'
p4420
aS'isEnabled = True'
p4421
aS'animState = 0'
p4422
aS'stagingEnabled = True'
p4423
aS'EVENTS'
p4424
a(lp4425
aS'ACTIONS'
p4426
a(lp4427
aS'UPGRADESAPPLIED'
p4428
a(lp4429
aaS'MODULE'
p4430
a(lp4431
S'name = FXModuleAnimateThrottle'
p4432
aS'isEnabled = True'
p4433
aS'animState = 0'
p4434
aS'stagingEnabled = True'
p4435
aS'EVENTS'
p4436
a(lp4437
aS'ACTIONS'
p4438
a(lp4439
aS'UPGRADESAPPLIED'
p4440
a(lp4441
aaS'MODULE'
p4442
a(lp4443
S'name = FXModuleAnimateThrottle'
p4444
aS'isEnabled = True'
p4445
aS'animState = 0'
p4446
aS'stagingEnabled = True'
p4447
aS'EVENTS'
p4448
a(lp4449
aS'ACTIONS'
p4450
a(lp4451
aS'UPGRADESAPPLIED'
p4452
a(lp4453
aaS'MODULE'
p4454
a(lp4455
S'name = ModuleGimbal'
p4456
aS'isEnabled = True'
p4457
aS'gimbalLock = False'
p4458
aS'gimbalLimiter = 100'
p4459
aS'currentShowToggles = False'
p4460
aS'enableYaw = True'
p4461
aS'enablePitch = True'
p4462
aS'enableRoll = True'
p4463
aS'gimbalActive = False'
p4464
aS'stagingEnabled = True'
p4465
aS'EVENTS'
p4466
a(lp4467
aS'ACTIONS'
p4468
a(lp4469
S'ToggleAction'
p4470
a(lp4471
S'actionGroup = None'
p4472
aaS'LockAction'
p4473
a(lp4474
S'actionGroup = None'
p4475
aaS'FreeAction'
p4476
a(lp4477
S'actionGroup = None'
p4478
aaS'TogglePitchAction'
p4479
a(lp4480
S'actionGroup = None'
p4481
aaS'ToggleYawAction'
p4482
a(lp4483
S'actionGroup = None'
p4484
aaS'ToggleRollAction'
p4485
a(lp4486
S'actionGroup = None'
p4487
aaaS'UPGRADESAPPLIED'
p4488
a(lp4489
aaS'MODULE'
p4490
a(lp4491
S'name = FXModuleConstrainPosition'
p4492
aS'isEnabled = True'
p4493
aS'stagingEnabled = True'
p4494
aS'EVENTS'
p4495
a(lp4496
aS'ACTIONS'
p4497
a(lp4498
aS'UPGRADESAPPLIED'
p4499
a(lp4500
aaS'MODULE'
p4501
a(lp4502
S'name = ModuleAlternator'
p4503
aS'isEnabled = True'
p4504
aS'stagingEnabled = True'
p4505
aS'EVENTS'
p4506
a(lp4507
aS'ACTIONS'
p4508
a(lp4509
aS'UPGRADESAPPLIED'
p4510
a(lp4511
aaS'MODULE'
p4512
a(lp4513
S'name = ModuleAlternator'
p4514
aS'isEnabled = True'
p4515
aS'stagingEnabled = True'
p4516
aS'EVENTS'
p4517
a(lp4518
aS'ACTIONS'
p4519
a(lp4520
aS'UPGRADESAPPLIED'
p4521
a(lp4522
aaS'MODULE'
p4523
a(lp4524
S'name = ModuleSurfaceFX'
p4525
aS'isEnabled = True'
p4526
aS'stagingEnabled = True'
p4527
aS'EVENTS'
p4528
a(lp4529
aS'ACTIONS'
p4530
a(lp4531
aS'UPGRADESAPPLIED'
p4532
a(lp4533
aaS'MODULE'
p4534
a(lp4535
S'name = ModuleSurfaceFX'
p4536
aS'isEnabled = True'
p4537
aS'stagingEnabled = True'
p4538
aS'EVENTS'
p4539
a(lp4540
aS'ACTIONS'
p4541
a(lp4542
aS'UPGRADESAPPLIED'
p4543
a(lp4544
aaS'MODULE'
p4545
a(lp4546
S'name = ModuleTestSubject'
p4547
aS'isEnabled = True'
p4548
aS'stagingEnabled = True'
p4549
aS'EVENTS'
p4550
a(lp4551
aS'ACTIONS'
p4552
a(lp4553
aS'UPGRADESAPPLIED'
p4554
a(lp4555
aaaS'PART'
p4556
a(lp4557
S'name = SmallGearBay'
p4558
aS'cid = 4294376932'
p4559
aS'uid = 3779321576'
p4560
aS'mid = 543467446'
p4561
aS'launchID = 2'
p4562
aS'parent = 1'
p4563
aS'position = -0.76364654302597046,-2.5074493885040283,0.54545998573303223'
p4564
aS'rotation = -0.739560425,-2.75084326E-15,-3.02249774E-15,0.673090518'
p4565
aS'mirror = 1,1,1'
p4566
aS'symMethod = Mirror'
p4567
aS'istg = -1'
p4568
aS'resPri = 0'
p4569
aS'dstg = 0'
p4570
aS'sqor = -1'
p4571
aS'sepI = -1'
p4572
aS'sidx = -1'
p4573
aS'attm = 1'
p4574
aS'sym = 9'
p4575
aS'srfN = srfAttach, 1'
p4576
aS'mass = 0.0450000018'
p4577
aS'shielded = False'
p4578
aS'temp = 313.5730631873941'
p4579
aS'tempExt = 313.51034655282371'
p4580
aS'tempExtUnexp = 313.51036716912074'
p4581
aS'expt = 0.5'
p4582
aS'state = 0'
p4583
aS'attached = True'
p4584
aS'autostrutMode = ForceHeaviest'
p4585
aS'rigidAttachment = False'
p4586
aS'flag = Squad/Flags/minimalistic'
p4587
aS'rTrf = SmallGearBay'
p4588
aS'modCost = 0'
p4589
aS'EVENTS'
p4590
a(lp4591
aS'ACTIONS'
p4592
a(lp4593
aS'PARTDATA'
p4594
a(lp4595
aS'MODULE'
p4596
a(lp4597
S'name = ModuleWheelBase'
p4598
aS'isEnabled = True'
p4599
aS'wheelType = FREE'
p4600
aS'isGrounded = True'
p4601
aS'autoFriction = True'
p4602
aS'frictionMultiplier = 0.999590039'
p4603
aS'stagingEnabled = True'
p4604
aS'EVENTS'
p4605
a(lp4606
aS'ACTIONS'
p4607
a(lp4608
S'ActAutoFrictionToggle'
p4609
a(lp4610
S'actionGroup = None'
p4611
aaaS'UPGRADESAPPLIED'
p4612
a(lp4613
aaS'MODULE'
p4614
a(lp4615
S'name = ModuleWheelSuspension'
p4616
aS'isEnabled = True'
p4617
aS'springTweakable = 1'
p4618
aS'damperTweakable = 1'
p4619
aS'suspensionPos = (-2.85087737E-07, 0.0621023774, 0.855364084)'
p4620
aS'autoBoost = 0.609999716'
p4621
aS'stagingEnabled = True'
p4622
aS'EVENTS'
p4623
a(lp4624
aS'ACTIONS'
p4625
a(lp4626
aS'UPGRADESAPPLIED'
p4627
a(lp4628
aaS'MODULE'
p4629
a(lp4630
S'name = ModuleWheelSteering'
p4631
aS'isEnabled = True'
p4632
aS'steeringEnabled = True'
p4633
aS'steeringInvert = False'
p4634
aS'stagingEnabled = True'
p4635
aS'EVENTS'
p4636
a(lp4637
aS'ACTIONS'
p4638
a(lp4639
aS'UPGRADESAPPLIED'
p4640
a(lp4641
aaS'MODULE'
p4642
a(lp4643
S'name = ModuleWheelBrakes'
p4644
aS'isEnabled = True'
p4645
aS'brakeTweakable = 100'
p4646
aS'brakeInput = 1'
p4647
aS'stagingEnabled = True'
p4648
aS'EVENTS'
p4649
a(lp4650
aS'ACTIONS'
p4651
a(lp4652
S'BrakeAction'
p4653
a(lp4654
S'actionGroup = Brakes'
p4655
aaaS'UPGRADESAPPLIED'
p4656
a(lp4657
aaS'MODULE'
p4658
a(lp4659
S'name = ModuleStatusLight'
p4660
aS'isEnabled = True'
p4661
aS'stagingEnabled = True'
p4662
aS'EVENTS'
p4663
a(lp4664
aS'ACTIONS'
p4665
a(lp4666
aS'UPGRADESAPPLIED'
p4667
a(lp4668
aaS'MODULE'
p4669
a(lp4670
S'name = ModuleWheelDeployment'
p4671
aS'isEnabled = True'
p4672
aS'shieldedCanDeploy = False'
p4673
aS'stateString ='
p4674
aS'stagingEnabled = True'
p4675
aS'position = 1'
p4676
aS'EVENTS'
p4677
a(lp4678
aS'ACTIONS'
p4679
a(lp4680
S'ActionToggle'
p4681
a(lp4682
S'actionGroup = Gear'
p4683
aaaS'UPGRADESAPPLIED'
p4684
a(lp4685
aaS'MODULE'
p4686
a(lp4687
S'name = FXModuleConstrainPosition'
p4688
aS'isEnabled = True'
p4689
aS'stagingEnabled = True'
p4690
aS'EVENTS'
p4691
a(lp4692
aS'ACTIONS'
p4693
a(lp4694
aS'UPGRADESAPPLIED'
p4695
a(lp4696
aaS'MODULE'
p4697
a(lp4698
S'name = FXModuleLookAtConstraint'
p4699
aS'isEnabled = True'
p4700
aS'stagingEnabled = True'
p4701
aS'EVENTS'
p4702
a(lp4703
aS'ACTIONS'
p4704
a(lp4705
aS'UPGRADESAPPLIED'
p4706
a(lp4707
aaS'MODULE'
p4708
a(lp4709
S'name = ModuleTestSubject'
p4710
aS'isEnabled = True'
p4711
aS'stagingEnabled = True'
p4712
aS'EVENTS'
p4713
a(lp4714
aS'ACTIONS'
p4715
a(lp4716
aS'UPGRADESAPPLIED'
p4717
a(lp4718
aaS'MODULE'
p4719
a(lp4720
S'name = ModuleLight'
p4721
aS'isEnabled = True'
p4722
aS'isOn = False'
p4723
aS'uiWriteLock = False'
p4724
aS'lightR = 1'
p4725
aS'lightG = 1'
p4726
aS'lightB = 1'
p4727
aS'stagingEnabled = True'
p4728
aS'EVENTS'
p4729
a(lp4730
aS'ACTIONS'
p4731
a(lp4732
S'ToggleLightAction'
p4733
a(lp4734
S'actionGroup = Light'
p4735
aaS'LightOnAction'
p4736
a(lp4737
S'actionGroup = None'
p4738
aaS'LightOffAction'
p4739
a(lp4740
S'actionGroup = None'
p4741
aaaS'UPGRADESAPPLIED'
p4742
a(lp4743
aaS'MODULE'
p4744
a(lp4745
S'name = ModuleWheelDamage'
p4746
aS'isEnabled = True'
p4747
aS'isDamaged = False'
p4748
aS'stagingEnabled = True'
p4749
aS'EVENTS'
p4750
a(lp4751
aS'ACTIONS'
p4752
a(lp4753
aS'UPGRADESAPPLIED'
p4754
a(lp4755
aaS'MODULE'
p4756
a(lp4757
S'name = ModuleDragModifier'
p4758
aS'isEnabled = True'
p4759
aS'stagingEnabled = True'
p4760
aS'EVENTS'
p4761
a(lp4762
aS'ACTIONS'
p4763
a(lp4764
aS'UPGRADESAPPLIED'
p4765
a(lp4766
aaS'MODULE'
p4767
a(lp4768
S'name = ModuleDragModifier'
p4769
aS'isEnabled = True'
p4770
aS'stagingEnabled = True'
p4771
aS'EVENTS'
p4772
a(lp4773
aS'ACTIONS'
p4774
a(lp4775
aS'UPGRADESAPPLIED'
p4776
a(lp4777
aaaS'PART'
p4778
a(lp4779
S'name = SmallGearBay'
p4780
aS'cid = 4294376684'
p4781
aS'uid = 2839288856'
p4782
aS'mid = 543467446'
p4783
aS'launchID = 2'
p4784
aS'parent = 1'
p4785
aS'position = 0.76364648342132568,-2.5074493885040283,0.54545998573303223'
p4786
aS'rotation = -0.739560544,2.75084368E-15,3.02249837E-15,0.673090518'
p4787
aS'mirror = 1,1,1'
p4788
aS'symMethod = Mirror'
p4789
aS'istg = -1'
p4790
aS'resPri = 0'
p4791
aS'dstg = 0'
p4792
aS'sqor = -1'
p4793
aS'sepI = -1'
p4794
aS'sidx = -1'
p4795
aS'attm = 1'
p4796
aS'sym = 8'
p4797
aS'srfN = srfAttach, 1'
p4798
aS'mass = 0.0450000018'
p4799
aS'shielded = False'
p4800
aS'temp = 313.57308483721533'
p4801
aS'tempExt = 313.51090054807014'
p4802
aS'tempExtUnexp = 313.51092106108194'
p4803
aS'expt = 0.5'
p4804
aS'state = 0'
p4805
aS'attached = True'
p4806
aS'autostrutMode = ForceHeaviest'
p4807
aS'rigidAttachment = False'
p4808
aS'flag = Squad/Flags/minimalistic'
p4809
aS'rTrf = SmallGearBay'
p4810
aS'modCost = 0'
p4811
aS'EVENTS'
p4812
a(lp4813
aS'ACTIONS'
p4814
a(lp4815
aS'PARTDATA'
p4816
a(lp4817
aS'MODULE'
p4818
a(lp4819
S'name = ModuleWheelBase'
p4820
aS'isEnabled = True'
p4821
aS'wheelType = FREE'
p4822
aS'isGrounded = True'
p4823
aS'autoFriction = True'
p4824
aS'frictionMultiplier = 0.999590039'
p4825
aS'stagingEnabled = True'
p4826
aS'EVENTS'
p4827
a(lp4828
aS'ACTIONS'
p4829
a(lp4830
S'ActAutoFrictionToggle'
p4831
a(lp4832
S'actionGroup = None'
p4833
aaaS'UPGRADESAPPLIED'
p4834
a(lp4835
aaS'MODULE'
p4836
a(lp4837
S'name = ModuleWheelSuspension'
p4838
aS'isEnabled = True'
p4839
aS'springTweakable = 1'
p4840
aS'damperTweakable = 1'
p4841
aS'suspensionPos = (-1.13310797E-07, 0.0621024966, 0.855061412)'
p4842
aS'autoBoost = 0.609999716'
p4843
aS'stagingEnabled = True'
p4844
aS'EVENTS'
p4845
a(lp4846
aS'ACTIONS'
p4847
a(lp4848
aS'UPGRADESAPPLIED'
p4849
a(lp4850
aaS'MODULE'
p4851
a(lp4852
S'name = ModuleWheelSteering'
p4853
aS'isEnabled = True'
p4854
aS'steeringEnabled = True'
p4855
aS'steeringInvert = False'
p4856
aS'stagingEnabled = True'
p4857
aS'EVENTS'
p4858
a(lp4859
aS'ACTIONS'
p4860
a(lp4861
aS'UPGRADESAPPLIED'
p4862
a(lp4863
aaS'MODULE'
p4864
a(lp4865
S'name = ModuleWheelBrakes'
p4866
aS'isEnabled = True'
p4867
aS'brakeTweakable = 100'
p4868
aS'brakeInput = 1'
p4869
aS'stagingEnabled = True'
p4870
aS'EVENTS'
p4871
a(lp4872
aS'ACTIONS'
p4873
a(lp4874
S'BrakeAction'
p4875
a(lp4876
S'actionGroup = Brakes'
p4877
aaaS'UPGRADESAPPLIED'
p4878
a(lp4879
aaS'MODULE'
p4880
a(lp4881
S'name = ModuleStatusLight'
p4882
aS'isEnabled = True'
p4883
aS'stagingEnabled = True'
p4884
aS'EVENTS'
p4885
a(lp4886
aS'ACTIONS'
p4887
a(lp4888
aS'UPGRADESAPPLIED'
p4889
a(lp4890
aaS'MODULE'
p4891
a(lp4892
S'name = ModuleWheelDeployment'
p4893
aS'isEnabled = True'
p4894
aS'shieldedCanDeploy = False'
p4895
aS'stateString ='
p4896
aS'stagingEnabled = True'
p4897
aS'position = 1'
p4898
aS'EVENTS'
p4899
a(lp4900
aS'ACTIONS'
p4901
a(lp4902
S'ActionToggle'
p4903
a(lp4904
S'actionGroup = Gear'
p4905
aaaS'UPGRADESAPPLIED'
p4906
a(lp4907
aaS'MODULE'
p4908
a(lp4909
S'name = FXModuleConstrainPosition'
p4910
aS'isEnabled = True'
p4911
aS'stagingEnabled = True'
p4912
aS'EVENTS'
p4913
a(lp4914
aS'ACTIONS'
p4915
a(lp4916
aS'UPGRADESAPPLIED'
p4917
a(lp4918
aaS'MODULE'
p4919
a(lp4920
S'name = FXModuleLookAtConstraint'
p4921
aS'isEnabled = True'
p4922
aS'stagingEnabled = True'
p4923
aS'EVENTS'
p4924
a(lp4925
aS'ACTIONS'
p4926
a(lp4927
aS'UPGRADESAPPLIED'
p4928
a(lp4929
aaS'MODULE'
p4930
a(lp4931
S'name = ModuleTestSubject'
p4932
aS'isEnabled = True'
p4933
aS'stagingEnabled = True'
p4934
aS'EVENTS'
p4935
a(lp4936
aS'ACTIONS'
p4937
a(lp4938
aS'UPGRADESAPPLIED'
p4939
a(lp4940
aaS'MODULE'
p4941
a(lp4942
S'name = ModuleLight'
p4943
aS'isEnabled = True'
p4944
aS'isOn = False'
p4945
aS'uiWriteLock = False'
p4946
aS'lightR = 1'
p4947
aS'lightG = 1'
p4948
aS'lightB = 1'
p4949
aS'stagingEnabled = True'
p4950
aS'EVENTS'
p4951
a(lp4952
aS'ACTIONS'
p4953
a(lp4954
S'ToggleLightAction'
p4955
a(lp4956
S'actionGroup = Light'
p4957
aaS'LightOnAction'
p4958
a(lp4959
S'actionGroup = None'
p4960
aaS'LightOffAction'
p4961
a(lp4962
S'actionGroup = None'
p4963
aaaS'UPGRADESAPPLIED'
p4964
a(lp4965
aaS'MODULE'
p4966
a(lp4967
S'name = ModuleWheelDamage'
p4968
aS'isEnabled = True'
p4969
aS'isDamaged = False'
p4970
aS'stagingEnabled = True'
p4971
aS'EVENTS'
p4972
a(lp4973
aS'ACTIONS'
p4974
a(lp4975
aS'UPGRADESAPPLIED'
p4976
a(lp4977
aaS'MODULE'
p4978
a(lp4979
S'name = ModuleDragModifier'
p4980
aS'isEnabled = True'
p4981
aS'stagingEnabled = True'
p4982
aS'EVENTS'
p4983
a(lp4984
aS'ACTIONS'
p4985
a(lp4986
aS'UPGRADESAPPLIED'
p4987
a(lp4988
aaS'MODULE'
p4989
a(lp4990
S'name = ModuleDragModifier'
p4991
aS'isEnabled = True'
p4992
aS'stagingEnabled = True'
p4993
aS'EVENTS'
p4994
a(lp4995
aS'ACTIONS'
p4996
a(lp4997
aS'UPGRADESAPPLIED'
p4998
a(lp4999
aaaS'PART'
p5000
a(lp5001
S'name = SmallGearBay'
p5002
aS'cid = 4294384766'
p5003
aS'uid = 1210810292'
p5004
aS'mid = 543467446'
p5005
aS'launchID = 2'
p5006
aS'parent = 0'
p5007
aS'position = 0,1.5681207180023193,0.51502776145935059'
p5008
aS'rotation = -0.749758661,0,0,0.661711872'
p5009
aS'mirror = 1,1,1'
p5010
aS'symMethod = Mirror'
p5011
aS'istg = -1'
p5012
aS'resPri = 0'
p5013
aS'dstg = 0'
p5014
aS'sqor = -1'
p5015
aS'sepI = -1'
p5016
aS'sidx = -1'
p5017
aS'attm = 1'
p5018
aS'srfN = srfAttach, 0'
p5019
aS'mass = 0.0450000018'
p5020
aS'shielded = False'
p5021
aS'temp = 313.56630744321643'
p5022
aS'tempExt = 313.41369281103573'
p5023
aS'tempExtUnexp = 313.41364081467191'
p5024
aS'expt = 0.5'
p5025
aS'state = 0'
p5026
aS'attached = True'
p5027
aS'autostrutMode = ForceHeaviest'
p5028
aS'rigidAttachment = False'
p5029
aS'flag = Squad/Flags/minimalistic'
p5030
aS'rTrf = SmallGearBay'
p5031
aS'modCost = 0'
p5032
aS'EVENTS'
p5033
a(lp5034
aS'ACTIONS'
p5035
a(lp5036
aS'PARTDATA'
p5037
a(lp5038
aS'MODULE'
p5039
a(lp5040
S'name = ModuleWheelBase'
p5041
aS'isEnabled = True'
p5042
aS'wheelType = FREE'
p5043
aS'isGrounded = True'
p5044
aS'autoFriction = True'
p5045
aS'frictionMultiplier = 0.999590039'
p5046
aS'stagingEnabled = True'
p5047
aS'EVENTS'
p5048
a(lp5049
aS'ACTIONS'
p5050
a(lp5051
S'ActAutoFrictionToggle'
p5052
a(lp5053
S'actionGroup = None'
p5054
aaaS'UPGRADESAPPLIED'
p5055
a(lp5056
aaS'MODULE'
p5057
a(lp5058
S'name = ModuleWheelSuspension'
p5059
aS'isEnabled = True'
p5060
aS'springTweakable = 1'
p5061
aS'damperTweakable = 1'
p5062
aS'suspensionPos = (-1.55220292E-07, 0.0621023774, 0.86198926)'
p5063
aS'autoBoost = 0.639999688'
p5064
aS'stagingEnabled = True'
p5065
aS'EVENTS'
p5066
a(lp5067
aS'ACTIONS'
p5068
a(lp5069
aS'UPGRADESAPPLIED'
p5070
a(lp5071
aaS'MODULE'
p5072
a(lp5073
S'name = ModuleWheelSteering'
p5074
aS'isEnabled = True'
p5075
aS'steeringEnabled = True'
p5076
aS'steeringInvert = False'
p5077
aS'stagingEnabled = True'
p5078
aS'EVENTS'
p5079
a(lp5080
aS'ACTIONS'
p5081
a(lp5082
aS'UPGRADESAPPLIED'
p5083
a(lp5084
aaS'MODULE'
p5085
a(lp5086
S'name = ModuleWheelBrakes'
p5087
aS'isEnabled = True'
p5088
aS'brakeTweakable = 100'
p5089
aS'brakeInput = 1'
p5090
aS'stagingEnabled = True'
p5091
aS'EVENTS'
p5092
a(lp5093
aS'ACTIONS'
p5094
a(lp5095
S'BrakeAction'
p5096
a(lp5097
S'actionGroup = Brakes'
p5098
aaaS'UPGRADESAPPLIED'
p5099
a(lp5100
aaS'MODULE'
p5101
a(lp5102
S'name = ModuleStatusLight'
p5103
aS'isEnabled = True'
p5104
aS'stagingEnabled = True'
p5105
aS'EVENTS'
p5106
a(lp5107
aS'ACTIONS'
p5108
a(lp5109
aS'UPGRADESAPPLIED'
p5110
a(lp5111
aaS'MODULE'
p5112
a(lp5113
S'name = ModuleWheelDeployment'
p5114
aS'isEnabled = True'
p5115
aS'shieldedCanDeploy = False'
p5116
aS'stateString ='
p5117
aS'stagingEnabled = True'
p5118
aS'position = 1'
p5119
aS'EVENTS'
p5120
a(lp5121
aS'ACTIONS'
p5122
a(lp5123
S'ActionToggle'
p5124
a(lp5125
S'actionGroup = Gear'
p5126
aaaS'UPGRADESAPPLIED'
p5127
a(lp5128
aaS'MODULE'
p5129
a(lp5130
S'name = FXModuleConstrainPosition'
p5131
aS'isEnabled = True'
p5132
aS'stagingEnabled = True'
p5133
aS'EVENTS'
p5134
a(lp5135
aS'ACTIONS'
p5136
a(lp5137
aS'UPGRADESAPPLIED'
p5138
a(lp5139
aaS'MODULE'
p5140
a(lp5141
S'name = FXModuleLookAtConstraint'
p5142
aS'isEnabled = True'
p5143
aS'stagingEnabled = True'
p5144
aS'EVENTS'
p5145
a(lp5146
aS'ACTIONS'
p5147
a(lp5148
aS'UPGRADESAPPLIED'
p5149
a(lp5150
aaS'MODULE'
p5151
a(lp5152
S'name = ModuleTestSubject'
p5153
aS'isEnabled = True'
p5154
aS'stagingEnabled = True'
p5155
aS'EVENTS'
p5156
a(lp5157
aS'ACTIONS'
p5158
a(lp5159
aS'UPGRADESAPPLIED'
p5160
a(lp5161
aaS'MODULE'
p5162
a(lp5163
S'name = ModuleLight'
p5164
aS'isEnabled = True'
p5165
aS'isOn = False'
p5166
aS'uiWriteLock = False'
p5167
aS'lightR = 1'
p5168
aS'lightG = 1'
p5169
aS'lightB = 1'
p5170
aS'stagingEnabled = True'
p5171
aS'EVENTS'
p5172
a(lp5173
aS'ACTIONS'
p5174
a(lp5175
S'ToggleLightAction'
p5176
a(lp5177
S'actionGroup = Light'
p5178
aaS'LightOnAction'
p5179
a(lp5180
S'actionGroup = None'
p5181
aaS'LightOffAction'
p5182
a(lp5183
S'actionGroup = None'
p5184
aaaS'UPGRADESAPPLIED'
p5185
a(lp5186
aaS'MODULE'
p5187
a(lp5188
S'name = ModuleWheelDamage'
p5189
aS'isEnabled = True'
p5190
aS'isDamaged = False'
p5191
aS'stagingEnabled = True'
p5192
aS'EVENTS'
p5193
a(lp5194
aS'ACTIONS'
p5195
a(lp5196
aS'UPGRADESAPPLIED'
p5197
a(lp5198
aaS'MODULE'
p5199
a(lp5200
S'name = ModuleDragModifier'
p5201
aS'isEnabled = True'
p5202
aS'stagingEnabled = True'
p5203
aS'EVENTS'
p5204
a(lp5205
aS'ACTIONS'
p5206
a(lp5207
aS'UPGRADESAPPLIED'
p5208
a(lp5209
aaS'MODULE'
p5210
a(lp5211
S'name = ModuleDragModifier'
p5212
aS'isEnabled = True'
p5213
aS'stagingEnabled = True'
p5214
aS'EVENTS'
p5215
a(lp5216
aS'ACTIONS'
p5217
a(lp5218
aS'UPGRADESAPPLIED'
p5219
a(lp5220
aaaS'ACTIONGROUPS'
p5221
a(lp5222
S'Stage = False, 0'
p5223
aS'Gear = True, 0'
p5224
aS'Light = False, 0'
p5225
aS'RCS = False, 0'
p5226
aS'SAS = False, 0'
p5227
aS'Brakes = True, 159.620000000008'
p5228
aS'Abort = False, 0'
p5229
aS'Custom01 = False, 0'
p5230
aS'Custom02 = False, 0'
p5231
aS'Custom03 = False, 0'
p5232
aS'Custom04 = False, 0'
p5233
aS'Custom05 = False, 0'
p5234
aS'Custom06 = False, 0'
p5235
aS'Custom07 = False, 0'
p5236
aS'Custom08 = False, 0'
p5237
aS'Custom09 = False, 0'
p5238
aS'Custom10 = False, 0'
p5239
aaS'DISCOVERY'
p5240
a(lp5241
S'state = -1'
p5242
aS'lastObservedTime = 0'
p5243
aS'lifetime = Infinity'
p5244
aS'refTime = Infinity'
p5245
aS'size = 2'
p5246
aaS'FLIGHTPLAN'
p5247
a(lp5248
aS'CTRLSTATE'
p5249
a(lp5250
S'pitch = 0'
p5251
aS'yaw = 0'
p5252
aS'roll = 0'
p5253
aS'trimPitch = 0'
p5254
aS'trimYaw = 0'
p5255
aS'trimRoll = 0'
p5256
aS'mainThrottle = 0.5'
p5257
aaS'VESSELMODULES'
p5258
a(lp5259
S'FlightIntegrator'
p5260
a(lp5261
aS'CommNetVessel'
p5262
a(lp5263
S'controlState = KerbalFull'
p5264
aS'canComm = True'
p5265
aaaa(dp5266
S'e38b83fbd67444b9bc49c9f043b709ff'
p5267
(lp5268
(S'24.87.29.11'
I59138
tp5269
a(S'184.68.166.106'
I47990
tp5270
a(S'24.87.29.11'
I59214
tp5271
a(S'184.68.166.106'
I40469
tp5272
asS'6675f95439904b7381c062f8763368fb'
p5273
(lp5274
g5271
asS'84a954282a0e42c0b19100a4be5ad869'
p5275
(lp5276
(S'184.68.166.106'
I48454
tp5277
ag5269
a(S'184.68.166.106'
I44102
tp5278
ag5270
ag5271
ag5272
asS'7c9feb5d7cb14ac4a36fa42087bde1d0'
p5279
(lp5280
g5277
ag5269
ag5278
ag5270
ag5271
ag5272
asS'585fc43b9daf4e5d836a24d2ed138400'
p5281
(lp5282
g5277
ag5269
ag5278
ag5270
ag5271
ag5272
asS'91eb41ad1c0b4d209231d57e3db1fc4c'
p5283
(lp5284
g5269
ag5270
ag5271
ag5272
asS'bff958fb788d474e85c487d3e81f5670'
p5285
(lp5286
g5277
ag5269
ag5278
ag5270
ag5271
ag5272
asS'e2ff139060074e17b550e130d8318da9'
p5287
(lp5288
g5269
ag5270
ag5271
ag5272
asS'ba0a234b9e8d479eb956a18fae923a83'
p5289
(lp5290
g5269
ag5270
ag5271
ag5272
asS'8f7e1eaf66ac470ab6b5583e17117740'
p5291
(lp5292
g5277
ag5269
ag5278
ag5270
ag5271
ag5272
asS'e85d8e64844f48c4b8da26fd2715eec5'
p5293
(lp5294
g5277
ag5269
ag5278
ag5270
ag5271
ag5272
asS'df1c75ce4ed1435687fb9b9b747b968c'
p5295
(lp5296
g5269
ag5270
ag5271
ag5272
asS'b6141b8d83fc4acaa15553b4ed5a0e5e'
p5297
(lp5298
g5277
ag5269
ag5278
ag5270
ag5271
ag5272
asS'812ae2a7330144848e38afd69cc306d1'
p5299
(lp5300
g5269
ag5270
ag5271
ag5272
asS'4984cb73e0ce424990edbe0c6e89759f'
p5301
(lp5302
g5269
ag5270
ag5271
ag5272
asS'f1fff484708546e3ad59bbb56bfb4c9a'
p5303
(lp5304
g5277
ag5269
ag5278
ag5270
ag5271
ag5272
asS'c323e5d92b414f2294eb39ed580836fe'
p5305
(lp5306
g5269
ag5270
ag5271
ag5272
asS'1c5ccabb648049ab90089196a10b0307'
p5307
(lp5308
g5269
ag5270
ag5271
ag5272
asS'df6afd19dbb848c4879b78158f76568b'
p5309
(lp5310
g5269
ag5270
ag5271
ag5272
ast.