((lp1
(lp2
S'pid = 237fe4e593374d42a349c2ea7c64c6ac'
p3
aS'name = Ast. HSJ-227'
p4
aS'type = SpaceObject'
p5
aS'sit = ORBITING'
p6
aS'landed = False'
p7
aS'landedAt ='
p8
aS'splashed = False'
p9
aS'met = 5.7399999999999656'
p10
aS'lct = 5.7399999999999656'
p11
aS'lastUT = -1'
p12
aS'root = 0'
p13
aS'lat = -2.8345198344092037'
p14
aS'lon = -178.92363712776287'
p15
aS'alt = 14594386539.660433'
p16
aS'hgt = -1'
p17
aS'nrm = 0,1,0'
p18
aS'rot = -0.298433661,0.402898014,-0.817398846,0.283672005'
p19
aS'CoM = 0,0,0'
p20
aS'stg = 0'
p21
aS'prst = False'
p22
aS'ref = 0'
p23
aS'ctrl = False'
p24
aS'ORBIT'
p25
a(lp26
S'SMA = 15240040139.32576'
p27
aS'ECC = 0.10912918367420885'
p28
aS'INC = 2.8722744996947851'
p29
aS'LPE = 2.1188995854532351'
p30
aS'LAN = 261.77340276067741'
p31
aS'MNA = -0.055505530742075163'
p32
aS'EPH = 2043591.4760839844'
p33
aS'REF = 0'
p34
aaS'PART'
p35
a(lp36
S'name = PotatoRoid'
p37
aS'cid = 0'
p38
aS'uid = 559298752'
p39
aS'mid = 559298752'
p40
aS'launchID = 0'
p41
aS'parent = 0'
p42
aS'position = 0,0,0'
p43
aS'rotation = 0,0,0,1'
p44
aS'mirror = 1,1,1'
p45
aS'symMethod = Radial'
p46
aS'istg = 0'
p47
aS'resPri = 0'
p48
aS'dstg = 0'
p49
aS'sqor = 0'
p50
aS'sepI = 0'
p51
aS'sidx = 0'
p52
aS'attm = 0'
p53
aS'srfN = None, -1'
p54
aS'mass = 150'
p55
aS'shielded = False'
p56
aS'temp = -1'
p57
aS'tempExt = 0'
p58
aS'tempExtUnexp = 0'
p59
aS'expt = 0.100000001'
p60
aS'state = 0'
p61
aS'attached = True'
p62
aS'autostrutMode = Off'
p63
aS'rigidAttachment = False'
p64
aS'flag ='
p65
aS'rTrf ='
p66
aS'modCost = 0'
p67
aaS'ACTIONGROUPS'
p68
a(lp69
aS'DISCOVERY'
p70
a(lp71
S'state = 1'
p72
aS'lastObservedTime = 5.7399999999999656'
p73
aS'lifetime = 586354.71038818359'
p74
aS'refTime = 1728000'
p75
aS'size = 4'
p76
aaS'FLIGHTPLAN'
p77
a(lp78
aS'CTRLSTATE'
p79
a(lp80
aS'VESSELMODULES'
p81
a(lp82
S'FlightIntegrator'
p83
a(lp84
aaa(lp85
S'pid = 2d92cfebcc634b3f8c232af23300abcc'
p86
aS'name = Bepis'
p87
aS'type = Plane'
p88
aS'sit = ORBITING'
p89
aS'landed = False'
p90
aS'landedAt ='
p91
aS'splashed = False'
p92
aS'met = 261.91365966779648'
p93
aS'lct = 354.59999999996745'
p94
aS'lastUT = 616.51365966776393'
p95
aS'root = 0'
p96
aS'lat = 17.849849155105879'
p97
aS'lon = -75.338871805810072'
p98
aS'alt = 113654.69388483849'
p99
aS'hgt = -1'
p100
aS'nrm = 0.0346407294,-0.97515738,-0.218788266'
p101
aS'rot = 0.734226346,-0.0743536279,0.0799860209,0.670063853'
p102
aS'CoM = 8.94069672E-08,1.03487659,-5.96046448E-08'
p103
aS'stg = 0'
p104
aS'prst = False'
p105
aS'ref = 2451134050'
p106
aS'ctrl = True'
p107
aS'cPch = 0.1320001'
p108
aS'cHdg = -4.050005'
p109
aS'cMod = 0'
p110
aS'ORBIT'
p111
a(lp112
S'SMA = 809375.97630114015'
p113
aS'ECC = 0.15896348137091387'
p114
aS'INC = 86.53502617882512'
p115
aS'LPE = 329.4504610881491'
p116
aS'LAN = 23.843232232918012'
p117
aS'MNA = 0.62556018867247931'
p118
aS'EPH = 616.51365966776393'
p119
aS'REF = 1'
p120
aaS'PART'
p121
a(lp122
S'name = Mark2Cockpit'
p123
aS'cid = 4294585468'
p124
aS'uid = 2451134050'
p125
aS'mid = 3601408167'
p126
aS'launchID = 1'
p127
aS'parent = 0'
p128
aS'position = 0,0,0'
p129
aS'rotation = 0,0,0,1'
p130
aS'mirror = 1,1,1'
p131
aS'symMethod = Radial'
p132
aS'istg = -1'
p133
aS'resPri = 0'
p134
aS'dstg = 0'
p135
aS'sqor = -1'
p136
aS'sepI = -1'
p137
aS'sidx = -1'
p138
aS'attm = 0'
p139
aS'srfN = , -1'
p140
aS'attN = top, 1'
p141
aS'attN = bottom, 4'
p142
aS'mass = 1'
p143
aS'shielded = False'
p144
aS'temp = 480.58007881262802'
p145
aS'tempExt = 448.04513523045011'
p146
aS'tempExtUnexp = 4'
p147
aS'expt = 0.5'
p148
aS'state = 0'
p149
aS'attached = True'
p150
aS'autostrutMode = Off'
p151
aS'rigidAttachment = False'
p152
aS'flag = Squad/Flags/minimalistic'
p153
aS'rTrf = Mark2Cockpit'
p154
aS'modCost = 0'
p155
aS'crew = Jebediah Kerman'
p156
aS'EVENTS'
p157
a(lp158
aS'ACTIONS'
p159
a(lp160
aS'PARTDATA'
p161
a(lp162
aS'MODULE'
p163
a(lp164
S'name = ModuleCommand'
p165
aS'isEnabled = True'
p166
aS'hibernation = False'
p167
aS'hibernateOnWarp = False'
p168
aS'stagingEnabled = True'
p169
aS'EVENTS'
p170
a(lp171
aS'ACTIONS'
p172
a(lp173
S'HibernateToggle'
p174
a(lp175
S'actionGroup = None'
p176
aS'active = False'
p177
aaaS'UPGRADESAPPLIED'
p178
a(lp179
aaS'MODULE'
p180
a(lp181
S'name = ModuleReactionWheel'
p182
aS'isEnabled = True'
p183
aS'actuatorModeCycle = 0'
p184
aS'authorityLimiter = 100'
p185
aS'stateString = Running'
p186
aS'stagingEnabled = True'
p187
aS'WheelState = Active'
p188
aS'EVENTS'
p189
a(lp190
aS'ACTIONS'
p191
a(lp192
S'CycleAction'
p193
a(lp194
S'actionGroup = None'
p195
aaS'Activate'
p196
a(lp197
S'actionGroup = None'
p198
aaS'Deactivate'
p199
a(lp200
S'actionGroup = None'
p201
aaS'Toggle'
p202
a(lp203
S'actionGroup = None'
p204
aaaS'UPGRADESAPPLIED'
p205
a(lp206
aaS'MODULE'
p207
a(lp208
S'name = ModuleScienceExperiment'
p209
aS'isEnabled = True'
p210
aS'Deployed = False'
p211
aS'Inoperable = False'
p212
aS'cooldownToGo = 0'
p213
aS'stagingEnabled = True'
p214
aS'EVENTS'
p215
a(lp216
aS'ACTIONS'
p217
a(lp218
S'DeployAction'
p219
a(lp220
S'actionGroup = None'
p221
aaS'ResetAction'
p222
a(lp223
S'actionGroup = None'
p224
aaaS'UPGRADESAPPLIED'
p225
a(lp226
aaS'MODULE'
p227
a(lp228
S'name = ModuleScienceContainer'
p229
aS'isEnabled = True'
p230
aS'stagingEnabled = True'
p231
aS'EVENTS'
p232
a(lp233
aS'ACTIONS'
p234
a(lp235
S'CollectAllAction'
p236
a(lp237
S'actionGroup = None'
p238
aaaS'UPGRADESAPPLIED'
p239
a(lp240
aaS'MODULE'
p241
a(lp242
S'name = FlagDecal'
p243
aS'isEnabled = True'
p244
aS'flagDisplayed = True'
p245
aS'stagingEnabled = True'
p246
aS'EVENTS'
p247
a(lp248
aS'ACTIONS'
p249
a(lp250
aS'UPGRADESAPPLIED'
p251
a(lp252
aaS'MODULE'
p253
a(lp254
S'name = ModuleAnimateGeneric'
p255
aS'isEnabled = True'
p256
aS'aniState = LOCKED'
p257
aS'animSwitch = True'
p258
aS'animTime = 0'
p259
aS'animSpeed = 0.25'
p260
aS'deployPercent = 100'
p261
aS'animationIsDisabled = False'
p262
aS'stagingEnabled = True'
p263
aS'EVENTS'
p264
a(lp265
aS'ACTIONS'
p266
a(lp267
S'ToggleAction'
p268
a(lp269
S'actionGroup = Light'
p270
aaaS'UPGRADESAPPLIED'
p271
a(lp272
aaS'MODULE'
p273
a(lp274
S'name = ModuleDataTransmitter'
p275
aS'isEnabled = True'
p276
aS'xmitIncomplete = False'
p277
aS'stagingEnabled = True'
p278
aS'canComm = True'
p279
aS'EVENTS'
p280
a(lp281
aS'ACTIONS'
p282
a(lp283
S'StartTransmissionAction'
p284
a(lp285
S'actionGroup = None'
p286
aS'active = False'
p287
aaaS'UPGRADESAPPLIED'
p288
a(lp289
aaS'MODULE'
p290
a(lp291
S'name = ModuleTripLogger'
p292
aS'isEnabled = True'
p293
aS'stagingEnabled = True'
p294
aS'EVENTS'
p295
a(lp296
aS'ACTIONS'
p297
a(lp298
aS'Log'
p299
a(lp300
S'flight = 0'
p301
aS'0 = Flight,Kerbin'
p302
aS'0 = Land,Kerbin'
p303
aS'0 = Escape,Kerbin'
p304
aS'0 = Suborbit,Kerbin'
p305
aS'0 = Orbit,Kerbin'
p306
aaS'UPGRADESAPPLIED'
p307
a(lp308
aaS'RESOURCE'
p309
a(lp310
S'name = ElectricCharge'
p311
aS'amount = 33.546519846344161'
p312
aS'maxAmount = 50'
p313
aS'flowState = True'
p314
aS'isTweakable = True'
p315
aS'hideFlow = False'
p316
aS'isVisible = True'
p317
aS'flowMode = Both'
p318
aaS'RESOURCE'
p319
a(lp320
S'name = MonoPropellant'
p321
aS'amount = 7.5'
p322
aS'maxAmount = 7.5'
p323
aS'flowState = True'
p324
aS'isTweakable = True'
p325
aS'hideFlow = False'
p326
aS'isVisible = True'
p327
aS'flowMode = Both'
p328
aaaS'PART'
p329
a(lp330
S'name = fuelTank'
p331
aS'cid = 4294578572'
p332
aS'uid = 850313407'
p333
aS'mid = 3601408167'
p334
aS'launchID = 1'
p335
aS'parent = 0'
p336
aS'position = 0,1.8500003814697266,0'
p337
aS'rotation = 0,0,0,1'
p338
aS'mirror = 1,1,1'
p339
aS'symMethod = Radial'
p340
aS'istg = -1'
p341
aS'resPri = 0'
p342
aS'dstg = 0'
p343
aS'sqor = -1'
p344
aS'sepI = -1'
p345
aS'sidx = -1'
p346
aS'attm = 0'
p347
aS'srfN = srfAttach, -1'
p348
aS'attN = top, 2'
p349
aS'attN = bottom, 0'
p350
aS'mass = 0.25'
p351
aS'shielded = False'
p352
aS'temp = 318.13331573416667'
p353
aS'tempExt = 334.88850426595809'
p354
aS'tempExtUnexp = 4'
p355
aS'expt = 0.5'
p356
aS'state = 0'
p357
aS'attached = True'
p358
aS'autostrutMode = Off'
p359
aS'rigidAttachment = False'
p360
aS'flag = Squad/Flags/minimalistic'
p361
aS'rTrf = fuelTank'
p362
aS'modCost = 0'
p363
aS'EVENTS'
p364
a(lp365
aS'ACTIONS'
p366
a(lp367
aS'PARTDATA'
p368
a(lp369
aS'RESOURCE'
p370
a(lp371
S'name = LiquidFuel'
p372
aS'amount = 130.44330739190949'
p373
aS'maxAmount = 180'
p374
aS'flowState = True'
p375
aS'isTweakable = True'
p376
aS'hideFlow = False'
p377
aS'isVisible = True'
p378
aS'flowMode = Both'
p379
aaS'RESOURCE'
p380
a(lp381
S'name = Oxidizer'
p382
aS'amount = 202.55021541665562'
p383
aS'maxAmount = 220'
p384
aS'flowState = True'
p385
aS'isTweakable = True'
p386
aS'hideFlow = False'
p387
aS'isVisible = True'
p388
aS'flowMode = Both'
p389
aaaS'PART'
p390
a(lp391
S'name = fuelTankSmallFlat'
p392
aS'cid = 4294557306'
p393
aS'uid = 3003867744'
p394
aS'mid = 3601408167'
p395
aS'launchID = 1'
p396
aS'parent = 1'
p397
aS'position = 0,3.1281909942626953,0'
p398
aS'rotation = 0,0,0,1'
p399
aS'mirror = 1,1,1'
p400
aS'symMethod = Radial'
p401
aS'istg = -1'
p402
aS'resPri = 0'
p403
aS'dstg = 0'
p404
aS'sqor = -1'
p405
aS'sepI = -1'
p406
aS'sidx = -1'
p407
aS'attm = 0'
p408
aS'srfN = srfAttach, -1'
p409
aS'attN = top, 3'
p410
aS'attN = bottom, 1'
p411
aS'mass = 0.0625'
p412
aS'shielded = False'
p413
aS'temp = 338.2556120549084'
p414
aS'tempExt = 336.65810035723649'
p415
aS'tempExtUnexp = 4'
p416
aS'expt = 0.5'
p417
aS'state = 0'
p418
aS'attached = True'
p419
aS'autostrutMode = Off'
p420
aS'rigidAttachment = False'
p421
aS'flag = Squad/Flags/minimalistic'
p422
aS'rTrf = fuelTankSmallFlat'
p423
aS'modCost = 0'
p424
aS'EVENTS'
p425
a(lp426
aS'ACTIONS'
p427
a(lp428
aS'PARTDATA'
p429
a(lp430
aS'RESOURCE'
p431
a(lp432
S'name = LiquidFuel'
p433
aS'amount = 0'
p434
aS'maxAmount = 45'
p435
aS'flowState = True'
p436
aS'isTweakable = True'
p437
aS'hideFlow = False'
p438
aS'isVisible = True'
p439
aS'flowMode = Both'
p440
aaS'RESOURCE'
p441
a(lp442
S'name = Oxidizer'
p443
aS'amount = 0'
p444
aS'maxAmount = 55'
p445
aS'flowState = True'
p446
aS'isTweakable = True'
p447
aS'hideFlow = False'
p448
aS'isVisible = True'
p449
aS'flowMode = Both'
p450
aaaS'PART'
p451
a(lp452
S'name = shockConeIntake'
p453
aS'cid = 4294545094'
p454
aS'uid = 34116333'
p455
aS'mid = 3601408167'
p456
aS'launchID = 1'
p457
aS'parent = 2'
p458
aS'position = 0,4.0656909942626953,0'
p459
aS'rotation = 0,0,0,1'
p460
aS'mirror = 1,1,1'
p461
aS'symMethod = Radial'
p462
aS'istg = -1'
p463
aS'resPri = 0'
p464
aS'dstg = 0'
p465
aS'sqor = -1'
p466
aS'sepI = -1'
p467
aS'sidx = -1'
p468
aS'attm = 0'
p469
aS'srfN = , -1'
p470
aS'attN = bottom, 2'
p471
aS'mass = 0.119999997'
p472
aS'shielded = False'
p473
aS'temp = 338.33052994735419'
p474
aS'tempExt = 336.4926631413594'
p475
aS'tempExtUnexp = 4'
p476
aS'expt = 0.5'
p477
aS'state = 0'
p478
aS'attached = True'
p479
aS'autostrutMode = Off'
p480
aS'rigidAttachment = False'
p481
aS'flag = Squad/Flags/minimalistic'
p482
aS'rTrf = shockConeIntake'
p483
aS'modCost = 0'
p484
aS'EVENTS'
p485
a(lp486
aS'ACTIONS'
p487
a(lp488
aS'PARTDATA'
p489
a(lp490
aS'MODULE'
p491
a(lp492
S'name = ModuleResourceIntake'
p493
aS'isEnabled = True'
p494
aS'intakeEnabled = True'
p495
aS'stagingEnabled = True'
p496
aS'EVENTS'
p497
a(lp498
aS'ACTIONS'
p499
a(lp500
S'ToggleAction'
p501
a(lp502
S'actionGroup = None'
p503
aaaS'UPGRADESAPPLIED'
p504
a(lp505
aaS'MODULE'
p506
a(lp507
S'name = ModuleAnimateHeat'
p508
aS'isEnabled = True'
p509
aS'stagingEnabled = True'
p510
aS'EVENTS'
p511
a(lp512
aS'ACTIONS'
p513
a(lp514
aS'UPGRADESAPPLIED'
p515
a(lp516
aaS'RESOURCE'
p517
a(lp518
S'name = IntakeAir'
p519
aS'amount = 0'
p520
aS'maxAmount = 2'
p521
aS'flowState = True'
p522
aS'isTweakable = False'
p523
aS'hideFlow = False'
p524
aS'isVisible = False'
p525
aS'flowMode = Both'
p526
aaaS'PART'
p527
a(lp528
S'name = RAPIER'
p529
aS'cid = 4294568694'
p530
aS'uid = 1318919058'
p531
aS'mid = 3601408167'
p532
aS'launchID = 1'
p533
aS'parent = 0'
p534
aS'position = 0,-1.8644313812255859,0'
p535
aS'rotation = 0,0,0,1'
p536
aS'mirror = 1,1,1'
p537
aS'symMethod = Radial'
p538
aS'istg = 0'
p539
aS'resPri = 0'
p540
aS'dstg = 0'
p541
aS'sqor = 0'
p542
aS'sepI = -1'
p543
aS'sidx = 0'
p544
aS'attm = 0'
p545
aS'srfN = , -1'
p546
aS'attN = top, 0'
p547
aS'attN = bottom, -1'
p548
aS'mass = 2'
p549
aS'shielded = False'
p550
aS'temp = 540.23697953253509'
p551
aS'tempExt = 502.56276773231036'
p552
aS'tempExtUnexp = 4'
p553
aS'expt = 0.5'
p554
aS'state = 1'
p555
aS'attached = True'
p556
aS'autostrutMode = Off'
p557
aS'rigidAttachment = False'
p558
aS'flag = Squad/Flags/minimalistic'
p559
aS'rTrf = RAPIER'
p560
aS'modCost = 0'
p561
aS'EVENTS'
p562
a(lp563
aS'ACTIONS'
p564
a(lp565
aS'PARTDATA'
p566
a(lp567
aS'MODULE'
p568
a(lp569
S'name = MultiModeEngine'
p570
aS'isEnabled = True'
p571
aS'runningPrimary = False'
p572
aS'autoSwitch = False'
p573
aS'stagingEnabled = True'
p574
aS'EVENTS'
p575
a(lp576
aS'ACTIONS'
p577
a(lp578
S'ModeAction'
p579
a(lp580
S'actionGroup = None'
p581
aaS'ShutdownAction'
p582
a(lp583
S'actionGroup = None'
p584
aaS'ActivateAction'
p585
a(lp586
S'actionGroup = None'
p587
aaS'OnAction'
p588
a(lp589
S'actionGroup = None'
p590
aaaS'UPGRADESAPPLIED'
p591
a(lp592
aaS'MODULE'
p593
a(lp594
S'name = ModuleEnginesFX'
p595
aS'isEnabled = False'
p596
aS'staged = True'
p597
aS'flameout = False'
p598
aS'EngineIgnited = False'
p599
aS'engineShutdown = False'
p600
aS'currentThrottle = 0'
p601
aS'thrustPercentage = 100'
p602
aS'manuallyOverridden = True'
p603
aS'stagingEnabled = True'
p604
aS'EVENTS'
p605
a(lp606
aS'ACTIONS'
p607
a(lp608
S'OnAction'
p609
a(lp610
S'actionGroup = None'
p611
aS'active = False'
p612
aaS'ShutdownAction'
p613
a(lp614
S'actionGroup = None'
p615
aS'active = False'
p616
aaS'ActivateAction'
p617
a(lp618
S'actionGroup = None'
p619
aS'active = False'
p620
aaaS'UPGRADESAPPLIED'
p621
a(lp622
aaS'MODULE'
p623
a(lp624
S'name = ModuleEnginesFX'
p625
aS'isEnabled = True'
p626
aS'staged = False'
p627
aS'flameout = False'
p628
aS'EngineIgnited = True'
p629
aS'engineShutdown = False'
p630
aS'currentThrottle = 0'
p631
aS'thrustPercentage = 100'
p632
aS'manuallyOverridden = False'
p633
aS'stagingEnabled = True'
p634
aS'EVENTS'
p635
a(lp636
aS'ACTIONS'
p637
a(lp638
S'OnAction'
p639
a(lp640
S'actionGroup = None'
p641
aaS'ShutdownAction'
p642
a(lp643
S'actionGroup = None'
p644
aaS'ActivateAction'
p645
a(lp646
S'actionGroup = None'
p647
aaaS'UPGRADESAPPLIED'
p648
a(lp649
aaS'MODULE'
p650
a(lp651
S'name = FXModuleAnimateThrottle'
p652
aS'isEnabled = True'
p653
aS'animState = 0.4972606'
p654
aS'stagingEnabled = True'
p655
aS'EVENTS'
p656
a(lp657
aS'ACTIONS'
p658
a(lp659
aS'UPGRADESAPPLIED'
p660
a(lp661
aaS'MODULE'
p662
a(lp663
S'name = ModuleGimbal'
p664
aS'isEnabled = True'
p665
aS'gimbalLock = False'
p666
aS'gimbalLimiter = 100'
p667
aS'currentShowToggles = False'
p668
aS'enableYaw = True'
p669
aS'enablePitch = True'
p670
aS'enableRoll = True'
p671
aS'gimbalActive = True'
p672
aS'stagingEnabled = True'
p673
aS'EVENTS'
p674
a(lp675
aS'ACTIONS'
p676
a(lp677
S'ToggleAction'
p678
a(lp679
S'actionGroup = None'
p680
aaS'LockAction'
p681
a(lp682
S'actionGroup = None'
p683
aaS'FreeAction'
p684
a(lp685
S'actionGroup = None'
p686
aaS'TogglePitchAction'
p687
a(lp688
S'actionGroup = None'
p689
aaS'ToggleYawAction'
p690
a(lp691
S'actionGroup = None'
p692
aaS'ToggleRollAction'
p693
a(lp694
S'actionGroup = None'
p695
aaaS'UPGRADESAPPLIED'
p696
a(lp697
aaS'MODULE'
p698
a(lp699
S'name = ModuleTestSubject'
p700
aS'isEnabled = True'
p701
aS'stagingEnabled = True'
p702
aS'EVENTS'
p703
a(lp704
aS'ACTIONS'
p705
a(lp706
aS'UPGRADESAPPLIED'
p707
a(lp708
aaS'MODULE'
p709
a(lp710
S'name = ModuleSurfaceFX'
p711
aS'isEnabled = True'
p712
aS'stagingEnabled = True'
p713
aS'EVENTS'
p714
a(lp715
aS'ACTIONS'
p716
a(lp717
aS'UPGRADESAPPLIED'
p718
a(lp719
aaS'MODULE'
p720
a(lp721
S'name = ModuleSurfaceFX'
p722
aS'isEnabled = True'
p723
aS'stagingEnabled = True'
p724
aS'EVENTS'
p725
a(lp726
aS'ACTIONS'
p727
a(lp728
aS'UPGRADESAPPLIED'
p729
a(lp730
aaaS'PART'
p731
a(lp732
S'name = airbrake1'
p733
aS'cid = 4294527956'
p734
aS'uid = 331970532'
p735
aS'mid = 3601408167'
p736
aS'launchID = 1'
p737
aS'parent = 0'
p738
aS'position = 0.56502020359039307,-0.025053977966308594,-0.32621467113494873'
p739
aS'rotation = -4.28182112E-08,0.866025448,7.41633244E-08,0.49999997'
p740
aS'mirror = 1,1,1'
p741
aS'symMethod = Radial'
p742
aS'istg = -1'
p743
aS'resPri = 0'
p744
aS'dstg = 0'
p745
aS'sqor = -1'
p746
aS'sepI = -1'
p747
aS'sidx = -1'
p748
aS'attm = 1'
p749
aS'sym = 6'
p750
aS'sym = 7'
p751
aS'srfN = srfAttach, 0'
p752
aS'mass = 0.0500000007'
p753
aS'shielded = False'
p754
aS'temp = 348.19357587187392'
p755
aS'tempExt = 369.10792861353161'
p756
aS'tempExtUnexp = 4'
p757
aS'expt = 0.100000001'
p758
aS'state = 0'
p759
aS'attached = True'
p760
aS'autostrutMode = Off'
p761
aS'rigidAttachment = False'
p762
aS'flag = Squad/Flags/minimalistic'
p763
aS'rTrf = airbrake1'
p764
aS'modCost = 0'
p765
aS'EVENTS'
p766
a(lp767
aS'ACTIONS'
p768
a(lp769
aS'PARTDATA'
p770
a(lp771
aS'MODULE'
p772
a(lp773
S'name = ModuleAeroSurface'
p774
aS'isEnabled = True'
p775
aS'aeroAuthorityLimiter = 100'
p776
aS'mirrorDeploy = False'
p777
aS'usesMirrorDeploy = False'
p778
aS'ignorePitch = False'
p779
aS'ignoreYaw = False'
p780
aS'ignoreRoll = True'
p781
aS'deploy = True'
p782
aS'deployInvert = False'
p783
aS'partDeployInvert = False'
p784
aS'authorityLimiter = 100'
p785
aS'stagingEnabled = True'
p786
aS'EVENTS'
p787
a(lp788
aS'ACTIONS'
p789
a(lp790
S'ActionToggleBrakes'
p791
a(lp792
S'actionGroup = Brakes'
p793
aaS'ActionToggle'
p794
a(lp795
S'actionGroup = None'
p796
aS'active = False'
p797
aaS'ActionExtend'
p798
a(lp799
S'actionGroup = None'
p800
aaS'ActionRetract'
p801
a(lp802
S'actionGroup = None'
p803
aaaS'UPGRADESAPPLIED'
p804
a(lp805
aaS'MODULE'
p806
a(lp807
S'name = FXModuleLookAtConstraint'
p808
aS'isEnabled = True'
p809
aS'stagingEnabled = True'
p810
aS'EVENTS'
p811
a(lp812
aS'ACTIONS'
p813
a(lp814
aS'UPGRADESAPPLIED'
p815
a(lp816
aaaS'PART'
p817
a(lp818
S'name = airbrake1'
p819
aS'cid = 4294526712'
p820
aS'uid = 1443434755'
p821
aS'mid = 3601408167'
p822
aS'launchID = 1'
p823
aS'parent = 0'
p824
aS'position = -0.56502038240432739,-0.025053977966308594,-0.32621446251869202'
p825
aS'rotation = 4.28182219E-08,0.866025388,7.41633173E-08,-0.500000119'
p826
aS'mirror = 1,1,1'
p827
aS'symMethod = Radial'
p828
aS'istg = -1'
p829
aS'resPri = 0'
p830
aS'dstg = 0'
p831
aS'sqor = -1'
p832
aS'sepI = -1'
p833
aS'sidx = -1'
p834
aS'attm = 1'
p835
aS'sym = 5'
p836
aS'sym = 7'
p837
aS'srfN = srfAttach, 0'
p838
aS'mass = 0.0500000007'
p839
aS'shielded = False'
p840
aS'temp = 348.73242056620774'
p841
aS'tempExt = 369.71236054515924'
p842
aS'tempExtUnexp = 4'
p843
aS'expt = 0.100000001'
p844
aS'state = 0'
p845
aS'attached = True'
p846
aS'autostrutMode = Off'
p847
aS'rigidAttachment = False'
p848
aS'flag = Squad/Flags/minimalistic'
p849
aS'rTrf = airbrake1'
p850
aS'modCost = 0'
p851
aS'EVENTS'
p852
a(lp853
aS'ACTIONS'
p854
a(lp855
aS'PARTDATA'
p856
a(lp857
aS'MODULE'
p858
a(lp859
S'name = ModuleAeroSurface'
p860
aS'isEnabled = True'
p861
aS'aeroAuthorityLimiter = 100'
p862
aS'mirrorDeploy = False'
p863
aS'usesMirrorDeploy = False'
p864
aS'ignorePitch = False'
p865
aS'ignoreYaw = False'
p866
aS'ignoreRoll = True'
p867
aS'deploy = True'
p868
aS'deployInvert = False'
p869
aS'partDeployInvert = False'
p870
aS'authorityLimiter = 100'
p871
aS'stagingEnabled = True'
p872
aS'EVENTS'
p873
a(lp874
aS'ACTIONS'
p875
a(lp876
S'ActionToggleBrakes'
p877
a(lp878
S'actionGroup = Brakes'
p879
aaS'ActionToggle'
p880
a(lp881
S'actionGroup = None'
p882
aS'active = False'
p883
aaS'ActionExtend'
p884
a(lp885
S'actionGroup = None'
p886
aaS'ActionRetract'
p887
a(lp888
S'actionGroup = None'
p889
aaaS'UPGRADESAPPLIED'
p890
a(lp891
aaS'MODULE'
p892
a(lp893
S'name = FXModuleLookAtConstraint'
p894
aS'isEnabled = True'
p895
aS'stagingEnabled = True'
p896
aS'EVENTS'
p897
a(lp898
aS'ACTIONS'
p899
a(lp900
aS'UPGRADESAPPLIED'
p901
a(lp902
aaaS'PART'
p903
a(lp904
S'name = airbrake1'
p905
aS'cid = 4294526644'
p906
aS'uid = 1462994272'
p907
aS'mid = 3601408167'
p908
aS'launchID = 1'
p909
aS'parent = 0'
p910
aS'position = 1.2431212326191599E-07,-0.025053977966308594,0.65242922306060791'
p911
aS'rotation = 8.56364295E-08,-1.07231031E-07,-8.62848238E-15,-1'
p912
aS'mirror = 1,1,1'
p913
aS'symMethod = Radial'
p914
aS'istg = -1'
p915
aS'resPri = 0'
p916
aS'dstg = 0'
p917
aS'sqor = -1'
p918
aS'sepI = -1'
p919
aS'sidx = -1'
p920
aS'attm = 1'
p921
aS'sym = 5'
p922
aS'sym = 6'
p923
aS'srfN = srfAttach, 0'
p924
aS'mass = 0.0500000007'
p925
aS'shielded = False'
p926
aS'temp = 350.9228427192711'
p927
aS'tempExt = 371.44057821928214'
p928
aS'tempExtUnexp = 4'
p929
aS'expt = 0.100000001'
p930
aS'state = 0'
p931
aS'attached = True'
p932
aS'autostrutMode = Off'
p933
aS'rigidAttachment = False'
p934
aS'flag = Squad/Flags/minimalistic'
p935
aS'rTrf = airbrake1'
p936
aS'modCost = 0'
p937
aS'EVENTS'
p938
a(lp939
aS'ACTIONS'
p940
a(lp941
aS'PARTDATA'
p942
a(lp943
aS'MODULE'
p944
a(lp945
S'name = ModuleAeroSurface'
p946
aS'isEnabled = True'
p947
aS'aeroAuthorityLimiter = 100'
p948
aS'mirrorDeploy = False'
p949
aS'usesMirrorDeploy = False'
p950
aS'ignorePitch = False'
p951
aS'ignoreYaw = False'
p952
aS'ignoreRoll = True'
p953
aS'deploy = True'
p954
aS'deployInvert = False'
p955
aS'partDeployInvert = False'
p956
aS'authorityLimiter = 100'
p957
aS'stagingEnabled = True'
p958
aS'EVENTS'
p959
a(lp960
aS'ACTIONS'
p961
a(lp962
S'ActionToggleBrakes'
p963
a(lp964
S'actionGroup = Brakes'
p965
aaS'ActionToggle'
p966
a(lp967
S'actionGroup = None'
p968
aS'active = False'
p969
aaS'ActionExtend'
p970
a(lp971
S'actionGroup = None'
p972
aaS'ActionRetract'
p973
a(lp974
S'actionGroup = None'
p975
aaaS'UPGRADESAPPLIED'
p976
a(lp977
aaS'MODULE'
p978
a(lp979
S'name = FXModuleLookAtConstraint'
p980
aS'isEnabled = True'
p981
aS'stagingEnabled = True'
p982
aS'EVENTS'
p983
a(lp984
aS'ACTIONS'
p985
a(lp986
aS'UPGRADESAPPLIED'
p987
a(lp988
aaaS'PART'
p989
a(lp990
S'name = R8winglet'
p991
aS'cid = 4294523296'
p992
aS'uid = 1703280820'
p993
aS'mid = 3601408167'
p994
aS'launchID = 1'
p995
aS'parent = 0'
p996
aS'position = 1.1576831340789795,0.075189590454101563,3.6786893531370879E-08'
p997
aS'rotation = 2.84710282E-08,1,0,0'
p998
aS'mirror = 1,1,1'
p999
aS'symMethod = Radial'
p1000
aS'istg = -1'
p1001
aS'resPri = 0'
p1002
aS'dstg = 0'
p1003
aS'sqor = -1'
p1004
aS'sepI = -1'
p1005
aS'sidx = -1'
p1006
aS'attm = 1'
p1007
aS'sym = 9'
p1008
aS'srfN = srfAttach, 0'
p1009
aS'mass = 0.100000001'
p1010
aS'shielded = False'
p1011
aS'temp = 327.4567274413634'
p1012
aS'tempExt = 351.55376027097395'
p1013
aS'tempExtUnexp = 4'
p1014
aS'expt = 0.100000001'
p1015
aS'state = 0'
p1016
aS'attached = True'
p1017
aS'autostrutMode = Off'
p1018
aS'rigidAttachment = False'
p1019
aS'flag = Squad/Flags/minimalistic'
p1020
aS'rTrf = R8winglet'
p1021
aS'modCost = 0'
p1022
aS'EVENTS'
p1023
a(lp1024
aS'ACTIONS'
p1025
a(lp1026
aS'PARTDATA'
p1027
a(lp1028
aS'MODULE'
p1029
a(lp1030
S'name = ModuleControlSurface'
p1031
aS'isEnabled = True'
p1032
aS'mirrorDeploy = False'
p1033
aS'usesMirrorDeploy = True'
p1034
aS'ignorePitch = False'
p1035
aS'ignoreYaw = False'
p1036
aS'ignoreRoll = False'
p1037
aS'deploy = False'
p1038
aS'deployInvert = False'
p1039
aS'partDeployInvert = False'
p1040
aS'authorityLimiter = 100'
p1041
aS'stagingEnabled = True'
p1042
aS'EVENTS'
p1043
a(lp1044
aS'ACTIONS'
p1045
a(lp1046
S'ActionToggle'
p1047
a(lp1048
S'actionGroup = None'
p1049
aaS'ActionExtend'
p1050
a(lp1051
S'actionGroup = None'
p1052
aaS'ActionRetract'
p1053
a(lp1054
S'actionGroup = None'
p1055
aaaS'UPGRADESAPPLIED'
p1056
a(lp1057
aaaS'PART'
p1058
a(lp1059
S'name = R8winglet'
p1060
aS'cid = 4294522558'
p1061
aS'uid = 1735545731'
p1062
aS'mid = 3601408167'
p1063
aS'launchID = 1'
p1064
aS'parent = 0'
p1065
aS'position = -1.1576831340789795,0.075189590454101563,6.442098055003953E-08'
p1066
aS'rotation = -1.24450813E-15,-4.37113883E-08,-2.84710282E-08,-1'
p1067
aS'mirror = 1,1,1'
p1068
aS'symMethod = Radial'
p1069
aS'istg = -1'
p1070
aS'resPri = 0'
p1071
aS'dstg = 0'
p1072
aS'sqor = -1'
p1073
aS'sepI = -1'
p1074
aS'sidx = -1'
p1075
aS'attm = 1'
p1076
aS'sym = 8'
p1077
aS'srfN = srfAttach, 0'
p1078
aS'mass = 0.100000001'
p1079
aS'shielded = False'
p1080
aS'temp = 329.78311904826649'
p1081
aS'tempExt = 353.46529671532704'
p1082
aS'tempExtUnexp = 4'
p1083
aS'expt = 0.100000001'
p1084
aS'state = 0'
p1085
aS'attached = True'
p1086
aS'autostrutMode = Off'
p1087
aS'rigidAttachment = False'
p1088
aS'flag = Squad/Flags/minimalistic'
p1089
aS'rTrf = R8winglet'
p1090
aS'modCost = 0'
p1091
aS'EVENTS'
p1092
a(lp1093
aS'ACTIONS'
p1094
a(lp1095
aS'PARTDATA'
p1096
a(lp1097
aS'MODULE'
p1098
a(lp1099
S'name = ModuleControlSurface'
p1100
aS'isEnabled = True'
p1101
aS'mirrorDeploy = False'
p1102
aS'usesMirrorDeploy = True'
p1103
aS'ignorePitch = False'
p1104
aS'ignoreYaw = False'
p1105
aS'ignoreRoll = False'
p1106
aS'deploy = False'
p1107
aS'deployInvert = False'
p1108
aS'partDeployInvert = False'
p1109
aS'authorityLimiter = 100'
p1110
aS'stagingEnabled = True'
p1111
aS'EVENTS'
p1112
a(lp1113
aS'ACTIONS'
p1114
a(lp1115
S'ActionToggle'
p1116
a(lp1117
S'actionGroup = None'
p1118
aaS'ActionExtend'
p1119
a(lp1120
S'actionGroup = None'
p1121
aaS'ActionRetract'
p1122
a(lp1123
S'actionGroup = None'
p1124
aaaS'UPGRADESAPPLIED'
p1125
a(lp1126
aaaS'ACTIONGROUPS'
p1127
a(lp1128
S'Stage = True, 355.479999999967'
p1129
aS'Gear = False, 0'
p1130
aS'Light = False, 0'
p1131
aS'RCS = False, 0'
p1132
aS'SAS = True, 357.519999999965'
p1133
aS'Brakes = False, 0'
p1134
aS'Abort = False, 0'
p1135
aS'Custom01 = False, 0'
p1136
aS'Custom02 = False, 0'
p1137
aS'Custom03 = False, 0'
p1138
aS'Custom04 = False, 0'
p1139
aS'Custom05 = False, 0'
p1140
aS'Custom06 = False, 0'
p1141
aS'Custom07 = False, 0'
p1142
aS'Custom08 = False, 0'
p1143
aS'Custom09 = False, 0'
p1144
aS'Custom10 = False, 0'
p1145
aaS'DISCOVERY'
p1146
a(lp1147
S'state = -1'
p1148
aS'lastObservedTime = 0'
p1149
aS'lifetime = Infinity'
p1150
aS'refTime = Infinity'
p1151
aS'size = 2'
p1152
aaS'FLIGHTPLAN'
p1153
a(lp1154
aS'CTRLSTATE'
p1155
a(lp1156
S'pitch = 7.15456508E-06'
p1157
aS'yaw = -9.25736003E-06'
p1158
aS'roll = -1.19003016E-06'
p1159
aS'trimPitch = 0'
p1160
aS'trimYaw = 0'
p1161
aS'trimRoll = 0'
p1162
aS'mainThrottle = 0'
p1163
aaS'VESSELMODULES'
p1164
a(lp1165
S'FlightIntegrator'
p1166
a(lp1167
aS'CommNetVessel'
p1168
a(lp1169
S'controlState = KerbalFull'
p1170
aS'canComm = True'
p1171
aaaa(lp1172
S'pid = 38e887ff8ea94927b5daaac862e8fb40'
p1173
aS'name = Ast. JTZ-524'
p1174
aS'type = SpaceObject'
p1175
aS'sit = ORBITING'
p1176
aS'landed = False'
p1177
aS'landedAt ='
p1178
aS'splashed = False'
p1179
aS'met = 368.79999999995454'
p1180
aS'lct = 368.79999999995454'
p1181
aS'lastUT = -1'
p1182
aS'root = 0'
p1183
aS'lat = -0.74955059006883662'
p1184
aS'lon = 177.05988369142455'
p1185
aS'alt = 13885543798.477325'
p1186
aS'hgt = -1'
p1187
aS'nrm = 0,1,0'
p1188
aS'rot = -0.487625986,-0.0433178209,0.629205287,0.603692949'
p1189
aS'CoM = 0,0,0'
p1190
aS'stg = 0'
p1191
aS'prst = False'
p1192
aS'ref = 0'
p1193
aS'ctrl = False'
p1194
aS'ORBIT'
p1195
a(lp1196
S'SMA = 15699973863.506956'
p1197
aS'ECC = 0.13666133092501989'
p1198
aS'INC = 0.95420750703177459'
p1199
aS'LPE = 357.57406279668396'
p1200
aS'LAN = 229.13358583484475'
p1201
aS'MNA = 0.096537522988221935'
p1202
aS'EPH = 1388141.7736328125'
p1203
aS'REF = 0'
p1204
aaS'PART'
p1205
a(lp1206
S'name = PotatoRoid'
p1207
aS'cid = 0'
p1208
aS'uid = 580359204'
p1209
aS'mid = 580359204'
p1210
aS'launchID = 0'
p1211
aS'parent = 0'
p1212
aS'position = 0,0,0'
p1213
aS'rotation = 0,0,0,1'
p1214
aS'mirror = 1,1,1'
p1215
aS'symMethod = Radial'
p1216
aS'istg = 0'
p1217
aS'resPri = 0'
p1218
aS'dstg = 0'
p1219
aS'sqor = 0'
p1220
aS'sepI = 0'
p1221
aS'sidx = 0'
p1222
aS'attm = 0'
p1223
aS'srfN = None, -1'
p1224
aS'mass = 150'
p1225
aS'shielded = False'
p1226
aS'temp = -1'
p1227
aS'tempExt = 0'
p1228
aS'tempExtUnexp = 0'
p1229
aS'expt = 0.100000001'
p1230
aS'state = 0'
p1231
aS'attached = True'
p1232
aS'autostrutMode = Off'
p1233
aS'rigidAttachment = False'
p1234
aS'flag ='
p1235
aS'rTrf ='
p1236
aS'modCost = 0'
p1237
aaS'ACTIONGROUPS'
p1238
a(lp1239
aS'DISCOVERY'
p1240
a(lp1241
S'state = 1'
p1242
aS'lastObservedTime = 368.79999999995454'
p1243
aS'lifetime = 341338.56811523438'
p1244
aS'refTime = 1728000'
p1245
aS'size = 1'
p1246
aaS'FLIGHTPLAN'
p1247
a(lp1248
aS'CTRLSTATE'
p1249
a(lp1250
aS'VESSELMODULES'
p1251
a(lp1252
S'FlightIntegrator'
p1253
a(lp1254
aaa(lp1255
S'pid = 439d2a45a0f1436c9f80fb5117b6f6ec'
p1256
aS'name = Ast. GKK-519'
p1257
aS'type = SpaceObject'
p1258
aS'sit = ORBITING'
p1259
aS'landed = False'
p1260
aS'landedAt ='
p1261
aS'splashed = False'
p1262
aS'met = 383.74526855462938'
p1263
aS'lct = 383.74526855462938'
p1264
aS'lastUT = -1'
p1265
aS'root = 0'
p1266
aS'lat = 0.36708682515012186'
p1267
aS'lon = -162.55010399572282'
p1268
aS'alt = 16925484242.344776'
p1269
aS'hgt = -1'
p1270
aS'nrm = 0,1,0'
p1271
aS'rot = 0.307568818,0.0950100645,-0.654001951,0.684584498'
p1272
aS'CoM = 0,0,0'
p1273
aS'stg = 0'
p1274
aS'prst = False'
p1275
aS'ref = 0'
p1276
aS'ctrl = False'
p1277
aS'ORBIT'
p1278
a(lp1279
S'SMA = 15840893337.68387'
p1280
aS'ECC = 0.14951343778827295'
p1281
aS'INC = 0.60891859887264932'
p1282
aS'LPE = 168.50246597761472'
p1283
aS'LAN = 160.69640435396286'
p1284
aS'MNA = -0.27273135963976819'
p1285
aS'EPH = 3277307.6954638669'
p1286
aS'REF = 0'
p1287
aaS'PART'
p1288
a(lp1289
S'name = PotatoRoid'
p1290
aS'cid = 0'
p1291
aS'uid = 985872167'
p1292
aS'mid = 985872167'
p1293
aS'launchID = 0'
p1294
aS'parent = 0'
p1295
aS'position = 0,0,0'
p1296
aS'rotation = 0,0,0,1'
p1297
aS'mirror = 1,1,1'
p1298
aS'symMethod = Radial'
p1299
aS'istg = 0'
p1300
aS'resPri = 0'
p1301
aS'dstg = 0'
p1302
aS'sqor = 0'
p1303
aS'sepI = 0'
p1304
aS'sidx = 0'
p1305
aS'attm = 0'
p1306
aS'srfN = None, -1'
p1307
aS'mass = 150'
p1308
aS'shielded = False'
p1309
aS'temp = -1'
p1310
aS'tempExt = 0'
p1311
aS'tempExtUnexp = 0'
p1312
aS'expt = 0.100000001'
p1313
aS'state = 0'
p1314
aS'attached = True'
p1315
aS'autostrutMode = Off'
p1316
aS'rigidAttachment = False'
p1317
aS'flag ='
p1318
aS'rTrf ='
p1319
aS'modCost = 0'
p1320
aaS'ACTIONGROUPS'
p1321
a(lp1322
aS'DISCOVERY'
p1323
a(lp1324
S'state = 1'
p1325
aS'lastObservedTime = 383.74526855462938'
p1326
aS'lifetime = 1181732.9315185547'
p1327
aS'refTime = 1728000'
p1328
aS'size = 2'
p1329
aaS'FLIGHTPLAN'
p1330
a(lp1331
aS'CTRLSTATE'
p1332
a(lp1333
aS'VESSELMODULES'
p1334
a(lp1335
S'FlightIntegrator'
p1336
a(lp1337
aaa(lp1338
S'pid = 275e028c18c14994aa42fc993328f59c'
p1339
aS'name = Ast. JSN-848'
p1340
aS'type = SpaceObject'
p1341
aS'sit = ORBITING'
p1342
aS'landed = False'
p1343
aS'landedAt ='
p1344
aS'splashed = False'
p1345
aS'met = 387.58526855462861'
p1346
aS'lct = 387.58526855462861'
p1347
aS'lastUT = -1'
p1348
aS'root = 0'
p1349
aS'lat = 0.47471318798205298'
p1350
aS'lon = 178.68267418791973'
p1351
aS'alt = 13490248445.482878'
p1352
aS'hgt = -1'
p1353
aS'nrm = 0,1,0'
p1354
aS'rot = 0.104231939,0.391230613,0.621793628,0.67040807'
p1355
aS'CoM = 0,0,0'
p1356
aS'stg = 0'
p1357
aS'prst = False'
p1358
aS'ref = 0'
p1359
aS'ctrl = False'
p1360
aS'ORBIT'
p1361
a(lp1362
S'SMA = 13834904847.014975'
p1363
aS'ECC = 0.021350009101719518'
p1364
aS'INC = 0.49041993883559065'
p1365
aS'LPE = 150.30656184743671'
p1366
aS'LAN = 103.54594535139375'
p1367
aS'MNA = 0.61217377858918076'
p1368
aS'EPH = 2822061.279116211'
p1369
aS'REF = 0'
p1370
aaS'PART'
p1371
a(lp1372
S'name = PotatoRoid'
p1373
aS'cid = 0'
p1374
aS'uid = 1284690073'
p1375
aS'mid = 1284690073'
p1376
aS'launchID = 0'
p1377
aS'parent = 0'
p1378
aS'position = 0,0,0'
p1379
aS'rotation = 0,0,0,1'
p1380
aS'mirror = 1,1,1'
p1381
aS'symMethod = Radial'
p1382
aS'istg = 0'
p1383
aS'resPri = 0'
p1384
aS'dstg = 0'
p1385
aS'sqor = 0'
p1386
aS'sepI = 0'
p1387
aS'sidx = 0'
p1388
aS'attm = 0'
p1389
aS'srfN = None, -1'
p1390
aS'mass = 150'
p1391
aS'shielded = False'
p1392
aS'temp = -1'
p1393
aS'tempExt = 0'
p1394
aS'tempExtUnexp = 0'
p1395
aS'expt = 0.100000001'
p1396
aS'state = 0'
p1397
aS'attached = True'
p1398
aS'autostrutMode = Off'
p1399
aS'rigidAttachment = False'
p1400
aS'flag ='
p1401
aS'rTrf ='
p1402
aS'modCost = 0'
p1403
aaS'ACTIONGROUPS'
p1404
a(lp1405
aS'DISCOVERY'
p1406
a(lp1407
S'state = 1'
p1408
aS'lastObservedTime = 387.58526855462861'
p1409
aS'lifetime = 113047.84355163574'
p1410
aS'refTime = 1728000'
p1411
aS'size = 4'
p1412
aaS'FLIGHTPLAN'
p1413
a(lp1414
aS'CTRLSTATE'
p1415
a(lp1416
aS'VESSELMODULES'
p1417
a(lp1418
S'FlightIntegrator'
p1419
a(lp1420
aaa(lp1421
S'pid = f235e3ed3bb4431e972888b243cee8fc'
p1422
aS'name = Ast. CYF-951'
p1423
aS'type = SpaceObject'
p1424
aS'sit = ORBITING'
p1425
aS'landed = False'
p1426
aS'landedAt ='
p1427
aS'splashed = False'
p1428
aS'met = 406.30526855462489'
p1429
aS'lct = 406.30526855462489'
p1430
aS'lastUT = -1'
p1431
aS'root = 0'
p1432
aS'lat = 0.92915852139982558'
p1433
aS'lon = -165.12866518869725'
p1434
aS'alt = 15350269895.092268'
p1435
aS'hgt = -1'
p1436
aS'nrm = 0,1,0'
p1437
aS'rot = 0.018240897,-0.586046994,0.411763728,0.697615087'
p1438
aS'CoM = 0,0,0'
p1439
aS'stg = 0'
p1440
aS'prst = False'
p1441
aS'ref = 0'
p1442
aS'ctrl = False'
p1443
aS'ORBIT'
p1444
a(lp1445
S'SMA = 14670729536.259909'
p1446
aS'ECC = 0.070398307064215598'
p1447
aS'INC = 1.956514477839701'
p1448
aS'LPE = 185.64871431923933'
p1449
aS'LAN = 166.86606605247766'
p1450
aS'MNA = -0.032512637176484324'
p1451
aS'EPH = 4358706.9522412112'
p1452
aS'REF = 0'
p1453
aaS'PART'
p1454
a(lp1455
S'name = PotatoRoid'
p1456
aS'cid = 0'
p1457
aS'uid = 166870543'
p1458
aS'mid = 166870543'
p1459
aS'launchID = 0'
p1460
aS'parent = 0'
p1461
aS'position = 0,0,0'
p1462
aS'rotation = 0,0,0,1'
p1463
aS'mirror = 1,1,1'
p1464
aS'symMethod = Radial'
p1465
aS'istg = 0'
p1466
aS'resPri = 0'
p1467
aS'dstg = 0'
p1468
aS'sqor = 0'
p1469
aS'sepI = 0'
p1470
aS'sidx = 0'
p1471
aS'attm = 0'
p1472
aS'srfN = None, -1'
p1473
aS'mass = 150'
p1474
aS'shielded = False'
p1475
aS'temp = -1'
p1476
aS'tempExt = 0'
p1477
aS'tempExtUnexp = 0'
p1478
aS'expt = 0.100000001'
p1479
aS'state = 0'
p1480
aS'attached = True'
p1481
aS'autostrutMode = Off'
p1482
aS'rigidAttachment = False'
p1483
aS'flag ='
p1484
aS'rTrf ='
p1485
aS'modCost = 0'
p1486
aaS'ACTIONGROUPS'
p1487
a(lp1488
aS'DISCOVERY'
p1489
a(lp1490
S'state = 1'
p1491
aS'lastObservedTime = 406.30526855462489'
p1492
aS'lifetime = 1405396.8017578125'
p1493
aS'refTime = 1728000'
p1494
aS'size = 2'
p1495
aaS'FLIGHTPLAN'
p1496
a(lp1497
aS'CTRLSTATE'
p1498
a(lp1499
aS'VESSELMODULES'
p1500
a(lp1501
S'FlightIntegrator'
p1502
a(lp1503
aaa(lp1504
S'pid = 54e3160943854ca0a12cf9d055a35c9f'
p1505
aS'name = Ast. IBN-589'
p1506
aS'type = SpaceObject'
p1507
aS'sit = ORBITING'
p1508
aS'landed = False'
p1509
aS'landedAt ='
p1510
aS'splashed = False'
p1511
aS'met = 421.4868554686845'
p1512
aS'lct = 421.4868554686845'
p1513
aS'lastUT = -1'
p1514
aS'root = 0'
p1515
aS'lat = -0.16582697288423537'
p1516
aS'lon = -170.27956351296905'
p1517
aS'alt = 14987063536.808964'
p1518
aS'hgt = -1'
p1519
aS'nrm = 0,1,0'
p1520
aS'rot = -0.0070482064,0.486167878,0.726441443,0.485668421'
p1521
aS'CoM = 0,0,0'
p1522
aS'stg = 0'
p1523
aS'prst = False'
p1524
aS'ref = 0'
p1525
aS'ctrl = False'
p1526
aS'ORBIT'
p1527
a(lp1528
S'SMA = 14524055238.959869'
p1529
aS'ECC = 0.064353248097130805'
p1530
aS'INC = 0.50954230537605816'
p1531
aS'LPE = 342.09517457165231'
p1532
aS'LAN = 351.07972461861249'
p1533
aS'MNA = -0.11981398414862965'
p1534
aS'EPH = 3714517.3608789062'
p1535
aS'REF = 0'
p1536
aaS'PART'
p1537
a(lp1538
S'name = PotatoRoid'
p1539
aS'cid = 0'
p1540
aS'uid = 1948446195'
p1541
aS'mid = 1948446195'
p1542
aS'launchID = 0'
p1543
aS'parent = 0'
p1544
aS'position = 0,0,0'
p1545
aS'rotation = 0,0,0,1'
p1546
aS'mirror = 1,1,1'
p1547
aS'symMethod = Radial'
p1548
aS'istg = 0'
p1549
aS'resPri = 0'
p1550
aS'dstg = 0'
p1551
aS'sqor = 0'
p1552
aS'sepI = 0'
p1553
aS'sidx = 0'
p1554
aS'attm = 0'
p1555
aS'srfN = None, -1'
p1556
aS'mass = 150'
p1557
aS'shielded = False'
p1558
aS'temp = -1'
p1559
aS'tempExt = 0'
p1560
aS'tempExtUnexp = 0'
p1561
aS'expt = 0.100000001'
p1562
aS'state = 0'
p1563
aS'attached = True'
p1564
aS'autostrutMode = Off'
p1565
aS'rigidAttachment = False'
p1566
aS'flag ='
p1567
aS'rTrf ='
p1568
aS'modCost = 0'
p1569
aaS'ACTIONGROUPS'
p1570
a(lp1571
aS'DISCOVERY'
p1572
a(lp1573
S'state = 1'
p1574
aS'lastObservedTime = 421.4868554686845'
p1575
aS'lifetime = 740607.33032226563'
p1576
aS'refTime = 1728000'
p1577
aS'size = 2'
p1578
aaS'FLIGHTPLAN'
p1579
a(lp1580
aS'CTRLSTATE'
p1581
a(lp1582
aS'VESSELMODULES'
p1583
a(lp1584
S'FlightIntegrator'
p1585
a(lp1586
aaa(lp1587
S'pid = 939fbb0984584efdba44ac820c16f217'
p1588
aS'name = Ast. LRF-288'
p1589
aS'type = SpaceObject'
p1590
aS'sit = ORBITING'
p1591
aS'landed = False'
p1592
aS'landedAt ='
p1593
aS'splashed = False'
p1594
aS'met = 520.53904296861231'
p1595
aS'lct = 520.53904296861231'
p1596
aS'lastUT = -1'
p1597
aS'root = 0'
p1598
aS'lat = -0.0041653709805693391'
p1599
aS'lon = -44.485853757464362'
p1600
aS'alt = 1359042463741.002'
p1601
aS'hgt = -1'
p1602
aS'nrm = 0,1,0'
p1603
aS'rot = -0.731921196,0.355210453,0.360287577,0.456409633'
p1604
aS'CoM = 0,0,0'
p1605
aS'stg = 0'
p1606
aS'prst = False'
p1607
aS'ref = 0'
p1608
aS'ctrl = False'
p1609
aS'ORBIT'
p1610
a(lp1611
S'SMA = -11811337992.958019'
p1612
aS'ECC = 113.67370802848113'
p1613
aS'INC = 0.26803912883304931'
p1614
aS'LPE = 347.30922809562276'
p1615
aS'LAN = 316.83834371294517'
p1616
aS'MNA = 23.623982494460456'
p1617
aS'EPH = 3481595.404765625'
p1618
aS'REF = 0'
p1619
aaS'PART'
p1620
a(lp1621
S'name = PotatoRoid'
p1622
aS'cid = 0'
p1623
aS'uid = 1232955217'
p1624
aS'mid = 1232955217'
p1625
aS'launchID = 0'
p1626
aS'parent = 0'
p1627
aS'position = 0,0,0'
p1628
aS'rotation = 0,0,0,1'
p1629
aS'mirror = 1,1,1'
p1630
aS'symMethod = Radial'
p1631
aS'istg = 0'
p1632
aS'resPri = 0'
p1633
aS'dstg = 0'
p1634
aS'sqor = 0'
p1635
aS'sepI = 0'
p1636
aS'sidx = 0'
p1637
aS'attm = 0'
p1638
aS'srfN = None, -1'
p1639
aS'mass = 150'
p1640
aS'shielded = False'
p1641
aS'temp = -1'
p1642
aS'tempExt = 0'
p1643
aS'tempExtUnexp = 0'
p1644
aS'expt = 0.100000001'
p1645
aS'state = 0'
p1646
aS'attached = True'
p1647
aS'autostrutMode = Off'
p1648
aS'rigidAttachment = False'
p1649
aS'flag ='
p1650
aS'rTrf ='
p1651
aS'modCost = 0'
p1652
aaS'ACTIONGROUPS'
p1653
a(lp1654
aS'DISCOVERY'
p1655
a(lp1656
S'state = 1'
p1657
aS'lastObservedTime = 520.53904296861231'
p1658
aS'lifetime = 542081.689453125'
p1659
aS'refTime = 1728000'
p1660
aS'size = 3'
p1661
aaS'FLIGHTPLAN'
p1662
a(lp1663
aS'CTRLSTATE'
p1664
a(lp1665
aS'VESSELMODULES'
p1666
a(lp1667
S'FlightIntegrator'
p1668
a(lp1669
aaa(dp1670
S'939fbb0984584efdba44ac820c16f217'
p1671
(lp1672
(S'24.87.29.11'
I57965
tp1673
asS'237fe4e593374d42a349c2ea7c64c6ac'
p1674
(lp1675
(S'24.87.29.11'
I57828
tp1676
a(S'24.87.29.11'
I57836
tp1677
ag1673
a(S'184.68.166.106'
I33116
tp1678
asS'38e887ff8ea94927b5daaac862e8fb40'
p1679
(lp1680
g1673
asS'54e3160943854ca0a12cf9d055a35c9f'
p1681
(lp1682
g1673
asS'2d92cfebcc634b3f8c232af23300abcc'
p1683
(lp1684
g1673
asS'439d2a45a0f1436c9f80fb5117b6f6ec'
p1685
(lp1686
g1673
asS'f235e3ed3bb4431e972888b243cee8fc'
p1687
(lp1688
g1673
asS'275e028c18c14994aa42fc993328f59c'
p1689
(lp1690
g1673
ast.