((lp1
(lp2
S'pid = f7afdfa704fe4daab4ae5e0a7a76153b'
p3
aS'name = Ast. HSJ-227'
p4
aS'type = SpaceObject'
p5
aS'sit = ORBITING'
p6
aS'landed = False'
p7
aS'landedAt ='
p8
aS'splashed = False'
p9
aS'met = 0.02'
p10
aS'lct = 0.02'
p11
aS'lastUT = -1'
p12
aS'root = 0'
p13
aS'lat = -2.8332948794582795'
p14
aS'lon = -178.90697653708727'
p15
aS'alt = 14604996073.172096'
p16
aS'hgt = -1'
p17
aS'nrm = 0,1,0'
p18
aS'rot = -0.298433661,0.402898014,-0.817398846,0.283672005'
p19
aS'CoM = 0,0,0'
p20
aS'stg = 0'
p21
aS'prst = False'
p22
aS'ref = 0'
p23
aS'ctrl = False'
p24
aS'ORBIT'
p25
a(lp26
S'SMA = 15257875219.036039'
p27
aS'ECC = 0.11011022072633558'
p28
aS'INC = 2.8710926902589717'
p29
aS'LPE = 2.063889164170051'
p30
aS'LAN = 261.77805386311434'
p31
aS'MNA = -0.054633148297799056'
p32
aS'EPH = 2043585.7560839844'
p33
aS'REF = 0'
p34
aaS'PART'
p35
a(lp36
S'name = PotatoRoid'
p37
aS'cid = 0'
p38
aS'uid = 559298752'
p39
aS'mid = 559298752'
p40
aS'launchID = 0'
p41
aS'parent = 0'
p42
aS'position = 0,0,0'
p43
aS'rotation = 0,0,0,1'
p44
aS'mirror = 1,1,1'
p45
aS'symMethod = Radial'
p46
aS'istg = 0'
p47
aS'resPri = 0'
p48
aS'dstg = 0'
p49
aS'sqor = 0'
p50
aS'sepI = 0'
p51
aS'sidx = 0'
p52
aS'attm = 0'
p53
aS'srfN = None, -1'
p54
aS'mass = 150'
p55
aS'shielded = False'
p56
aS'temp = -1'
p57
aS'tempExt = 0'
p58
aS'tempExtUnexp = 0'
p59
aS'expt = 0.100000001'
p60
aS'state = 0'
p61
aS'attached = True'
p62
aS'autostrutMode = Off'
p63
aS'rigidAttachment = False'
p64
aS'flag ='
p65
aS'rTrf ='
p66
aS'modCost = 0'
p67
aaS'ACTIONGROUPS'
p68
a(lp69
aS'DISCOVERY'
p70
a(lp71
S'state = 1'
p72
aS'lastObservedTime = 0.02'
p73
aS'lifetime = 586354.71038818359'
p74
aS'refTime = 1728000'
p75
aS'size = 4'
p76
aaS'FLIGHTPLAN'
p77
a(lp78
aS'CTRLSTATE'
p79
a(lp80
aS'VESSELMODULES'
p81
a(lp82
S'FlightIntegrator'
p83
a(lp84
aaa(lp85
S'pid = 6b06b1a98db44bc59efd70e7ec2ae764'
p86
aS'name = Ast. HSJ-227'
p87
aS'type = SpaceObject'
p88
aS'sit = ORBITING'
p89
aS'landed = False'
p90
aS'landedAt ='
p91
aS'splashed = False'
p92
aS'met = 0.02'
p93
aS'lct = 0.02'
p94
aS'lastUT = -1'
p95
aS'root = 0'
p96
aS'lat = -2.8284861759367206'
p97
aS'lon = -178.87259896631022'
p98
aS'alt = 14646112047.121075'
p99
aS'hgt = -1'
p100
aS'nrm = 0,1,0'
p101
aS'rot = -0.298433661,0.402898014,-0.817398846,0.283672005'
p102
aS'CoM = 0,0,0'
p103
aS'stg = 0'
p104
aS'prst = False'
p105
aS'ref = 0'
p106
aS'ctrl = False'
p107
aS'ORBIT'
p108
a(lp109
S'SMA = 15331392271.32233'
p110
aS'ECC = 0.11409465301482517'
p111
aS'INC = 2.8663587290111447'
p112
aS'LPE = 1.7493543709802237'
p113
aS'LAN = 261.79551802482416'
p114
aS'MNA = -0.049866065616564779'
p115
aS'EPH = 2043585.7560839844'
p116
aS'REF = 0'
p117
aaS'PART'
p118
a(lp119
S'name = PotatoRoid'
p120
aS'cid = 0'
p121
aS'uid = 559298752'
p122
aS'mid = 559298752'
p123
aS'launchID = 0'
p124
aS'parent = 0'
p125
aS'position = 0,0,0'
p126
aS'rotation = 0,0,0,1'
p127
aS'mirror = 1,1,1'
p128
aS'symMethod = Radial'
p129
aS'istg = 0'
p130
aS'resPri = 0'
p131
aS'dstg = 0'
p132
aS'sqor = 0'
p133
aS'sepI = 0'
p134
aS'sidx = 0'
p135
aS'attm = 0'
p136
aS'srfN = None, -1'
p137
aS'mass = 150'
p138
aS'shielded = False'
p139
aS'temp = -1'
p140
aS'tempExt = 0'
p141
aS'tempExtUnexp = 0'
p142
aS'expt = 0.100000001'
p143
aS'state = 0'
p144
aS'attached = True'
p145
aS'autostrutMode = Off'
p146
aS'rigidAttachment = False'
p147
aS'flag ='
p148
aS'rTrf ='
p149
aS'modCost = 0'
p150
aaS'ACTIONGROUPS'
p151
a(lp152
aS'DISCOVERY'
p153
a(lp154
S'state = 1'
p155
aS'lastObservedTime = 0.02'
p156
aS'lifetime = 586354.71038818359'
p157
aS'refTime = 1728000'
p158
aS'size = 4'
p159
aaS'FLIGHTPLAN'
p160
a(lp161
aS'CTRLSTATE'
p162
a(lp163
aS'VESSELMODULES'
p164
a(lp165
S'FlightIntegrator'
p166
a(lp167
aaa(lp168
S'pid = dcf5fdadbc964a05b4c59c6db2d8bc0f'
p169
aS'name = Ast. AFV-463'
p170
aS'type = SpaceObject'
p171
aS'sit = ORBITING'
p172
aS'landed = False'
p173
aS'landedAt ='
p174
aS'splashed = False'
p175
aS'met = 36.800844726561827'
p176
aS'lct = 36.800844726561827'
p177
aS'lastUT = -1'
p178
aS'root = 0'
p179
aS'lat = -0.019328793232951256'
p180
aS'lon = -99.328670395753889'
p181
aS'alt = 1359924312148.7866'
p182
aS'hgt = -1'
p183
aS'nrm = 0,1,0'
p184
aS'rot = 0.202546716,-0.530212402,-0.11085251,0.815819442'
p185
aS'CoM = 0,0,0'
p186
aS'stg = 0'
p187
aS'prst = False'
p188
aS'ref = 0'
p189
aS'ctrl = False'
p190
aS'ORBIT'
p191
a(lp192
S'SMA = -9270116438.8941002'
p193
aS'ECC = 147.24104995935696'
p194
aS'INC = 10.887904389802229'
p195
aS'LPE = 4.5828577910267851'
p196
aS'LAN = 260.80248427185705'
p197
aS'MNA = -11.652969466772799'
p198
aS'EPH = 2068018.1179833985'
p199
aS'REF = 0'
p200
aaS'PART'
p201
a(lp202
S'name = PotatoRoid'
p203
aS'cid = 0'
p204
aS'uid = 1307544012'
p205
aS'mid = 1307544012'
p206
aS'launchID = 0'
p207
aS'parent = 0'
p208
aS'position = 0,0,0'
p209
aS'rotation = 0,0,0,1'
p210
aS'mirror = 1,1,1'
p211
aS'symMethod = Radial'
p212
aS'istg = 0'
p213
aS'resPri = 0'
p214
aS'dstg = 0'
p215
aS'sqor = 0'
p216
aS'sepI = 0'
p217
aS'sidx = 0'
p218
aS'attm = 0'
p219
aS'srfN = None, -1'
p220
aS'mass = 150'
p221
aS'shielded = False'
p222
aS'temp = -1'
p223
aS'tempExt = 0'
p224
aS'tempExtUnexp = 0'
p225
aS'expt = 0.100000001'
p226
aS'state = 0'
p227
aS'attached = True'
p228
aS'autostrutMode = Off'
p229
aS'rigidAttachment = False'
p230
aS'flag ='
p231
aS'rTrf ='
p232
aS'modCost = 0'
p233
aaS'ACTIONGROUPS'
p234
a(lp235
aS'DISCOVERY'
p236
a(lp237
S'state = 1'
p238
aS'lastObservedTime = 36.800844726561827'
p239
aS'lifetime = 1425929.2602539063'
p240
aS'refTime = 1728000'
p241
aS'size = 3'
p242
aaS'FLIGHTPLAN'
p243
a(lp244
aS'CTRLSTATE'
p245
a(lp246
aS'VESSELMODULES'
p247
a(lp248
S'FlightIntegrator'
p249
a(lp250
aaa(lp251
S'pid = 3e84ad55c8004a0c9dd7eb4faa238c5f'
p252
aS'name = Ast. HKE-454'
p253
aS'type = SpaceObject'
p254
aS'sit = ORBITING'
p255
aS'landed = False'
p256
aS'landedAt ='
p257
aS'splashed = False'
p258
aS'met = 44.480844726561664'
p259
aS'lct = 44.480844726561664'
p260
aS'lastUT = -1'
p261
aS'root = 0'
p262
aS'lat = -0.02153990477536696'
p263
aS'lon = -67.027434702174773'
p264
aS'alt = 1358973512636.4836'
p265
aS'hgt = -1'
p266
aS'nrm = 0,1,0'
p267
aS'rot = 0.867473304,-0.483732402,0.0376826935,0.109877639'
p268
aS'CoM = 0,0,0'
p269
aS'stg = 0'
p270
aS'prst = False'
p271
aS'ref = 0'
p272
aS'ctrl = False'
p273
aS'ORBIT'
p274
a(lp275
S'SMA = -9176842520.564085'
p276
aS'ECC = 145.38561585599814'
p277
aS'INC = 9.5220001474630376'
p278
aS'LPE = 346.93942118870143'
p279
aS'LAN = 293.13804725388104'
p280
aS'MNA = 33.274665108202669'
p281
aS'EPH = 2894855.479379883'
p282
aS'REF = 0'
p283
aaS'PART'
p284
a(lp285
S'name = PotatoRoid'
p286
aS'cid = 0'
p287
aS'uid = 680087366'
p288
aS'mid = 680087366'
p289
aS'launchID = 0'
p290
aS'parent = 0'
p291
aS'position = 0,0,0'
p292
aS'rotation = 0,0,0,1'
p293
aS'mirror = 1,1,1'
p294
aS'symMethod = Radial'
p295
aS'istg = 0'
p296
aS'resPri = 0'
p297
aS'dstg = 0'
p298
aS'sqor = 0'
p299
aS'sepI = 0'
p300
aS'sidx = 0'
p301
aS'attm = 0'
p302
aS'srfN = None, -1'
p303
aS'mass = 150'
p304
aS'shielded = False'
p305
aS'temp = -1'
p306
aS'tempExt = 0'
p307
aS'tempExtUnexp = 0'
p308
aS'expt = 0.100000001'
p309
aS'state = 0'
p310
aS'attached = True'
p311
aS'autostrutMode = Off'
p312
aS'rigidAttachment = False'
p313
aS'flag ='
p314
aS'rTrf ='
p315
aS'modCost = 0'
p316
aaS'ACTIONGROUPS'
p317
a(lp318
aS'DISCOVERY'
p319
a(lp320
S'state = 1'
p321
aS'lastObservedTime = 44.480844726561664'
p322
aS'lifetime = 537952.79388427734'
p323
aS'refTime = 1728000'
p324
aS'size = 2'
p325
aaS'FLIGHTPLAN'
p326
a(lp327
aS'CTRLSTATE'
p328
a(lp329
aS'VESSELMODULES'
p330
a(lp331
S'FlightIntegrator'
p332
a(lp333
aaa(lp334
S'pid = 31c439fdb9cd4adbaeb365c3d1f9fee0'
p335
aS'name = Ast. XIA-532'
p336
aS'type = SpaceObject'
p337
aS'sit = ORBITING'
p338
aS'landed = False'
p339
aS'landedAt ='
p340
aS'splashed = False'
p341
aS'met = 71.139760742186681'
p342
aS'lct = 71.139760742186681'
p343
aS'lastUT = -1'
p344
aS'root = 0'
p345
aS'lat = -1.1843306173399788'
p346
aS'lon = -169.27650823245412'
p347
aS'alt = 15478707745.096365'
p348
aS'hgt = -1'
p349
aS'nrm = 0,1,0'
p350
aS'rot = 0.457695961,0.334746718,0.6373806,0.521732807'
p351
aS'CoM = 0,0,0'
p352
aS'stg = 0'
p353
aS'prst = False'
p354
aS'ref = 0'
p355
aS'ctrl = False'
p356
aS'ORBIT'
p357
a(lp358
S'SMA = 14951363883.023399'
p359
aS'ECC = 0.086970804869135554'
p360
aS'INC = 1.5765224154219963'
p361
aS'LPE = 359.91861229356101'
p362
aS'LAN = 322.09292620079395'
p363
aS'MNA = 0.0820108428468867'
p364
aS'EPH = 3774847.4703271482'
p365
aS'REF = 0'
p366
aaS'PART'
p367
a(lp368
S'name = PotatoRoid'
p369
aS'cid = 0'
p370
aS'uid = 309627476'
p371
aS'mid = 309627476'
p372
aS'launchID = 0'
p373
aS'parent = 0'
p374
aS'position = 0,0,0'
p375
aS'rotation = 0,0,0,1'
p376
aS'mirror = 1,1,1'
p377
aS'symMethod = Radial'
p378
aS'istg = 0'
p379
aS'resPri = 0'
p380
aS'dstg = 0'
p381
aS'sqor = 0'
p382
aS'sepI = 0'
p383
aS'sidx = 0'
p384
aS'attm = 0'
p385
aS'srfN = None, -1'
p386
aS'mass = 150'
p387
aS'shielded = False'
p388
aS'temp = -1'
p389
aS'tempExt = 0'
p390
aS'tempExtUnexp = 0'
p391
aS'expt = 0.100000001'
p392
aS'state = 0'
p393
aS'attached = True'
p394
aS'autostrutMode = Off'
p395
aS'rigidAttachment = False'
p396
aS'flag ='
p397
aS'rTrf ='
p398
aS'modCost = 0'
p399
aaS'ACTIONGROUPS'
p400
a(lp401
aS'DISCOVERY'
p402
a(lp403
S'state = 1'
p404
aS'lastObservedTime = 71.139760742186681'
p405
aS'lifetime = 972061.63330078125'
p406
aS'refTime = 1728000'
p407
aS'size = 1'
p408
aaS'FLIGHTPLAN'
p409
a(lp410
aS'CTRLSTATE'
p411
a(lp412
aS'VESSELMODULES'
p413
a(lp414
S'FlightIntegrator'
p415
a(lp416
aaa(lp417
S'pid = 9d539250d7334504be974aa8b35b5b25'
p418
aS'name = Ast. WQU-099'
p419
aS'type = SpaceObject'
p420
aS'sit = ORBITING'
p421
aS'landed = False'
p422
aS'landedAt ='
p423
aS'splashed = False'
p424
aS'met = 86.185251464842025'
p425
aS'lct = 86.185251464842025'
p426
aS'lastUT = -1'
p427
aS'root = 0'
p428
aS'lat = 0.031955291176193466'
p429
aS'lon = -171.4997808685095'
p430
aS'alt = 15153122879.966234'
p431
aS'hgt = -1'
p432
aS'nrm = 0,1,0'
p433
aS'rot = 0.583948791,-0.282353312,-0.663531959,0.372834593'
p434
aS'CoM = 0,0,0'
p435
aS'stg = 0'
p436
aS'prst = False'
p437
aS'ref = 0'
p438
aS'ctrl = False'
p439
aS'ORBIT'
p440
a(lp441
S'SMA = 14430640367.168535'
p442
aS'ECC = 0.075380522477338896'
p443
aS'INC = 0.069612299025264363'
p444
aS'LPE = 309.23436952395735'
p445
aS'LAN = 35.897633961145459'
p446
aS'MNA = 0.54493932826099933'
p447
aS'EPH = 5146160.9411108401'
p448
aS'REF = 0'
p449
aaS'PART'
p450
a(lp451
S'name = PotatoRoid'
p452
aS'cid = 0'
p453
aS'uid = 178269452'
p454
aS'mid = 178269452'
p455
aS'launchID = 0'
p456
aS'parent = 0'
p457
aS'position = 0,0,0'
p458
aS'rotation = 0,0,0,1'
p459
aS'mirror = 1,1,1'
p460
aS'symMethod = Radial'
p461
aS'istg = 0'
p462
aS'resPri = 0'
p463
aS'dstg = 0'
p464
aS'sqor = 0'
p465
aS'sepI = 0'
p466
aS'sidx = 0'
p467
aS'attm = 0'
p468
aS'srfN = None, -1'
p469
aS'mass = 150'
p470
aS'shielded = False'
p471
aS'temp = -1'
p472
aS'tempExt = 0'
p473
aS'tempExtUnexp = 0'
p474
aS'expt = 0.100000001'
p475
aS'state = 0'
p476
aS'attached = True'
p477
aS'autostrutMode = Off'
p478
aS'rigidAttachment = False'
p479
aS'flag ='
p480
aS'rTrf ='
p481
aS'modCost = 0'
p482
aaS'ACTIONGROUPS'
p483
a(lp484
aS'DISCOVERY'
p485
a(lp486
S'state = 1'
p487
aS'lastObservedTime = 86.185251464842025'
p488
aS'lifetime = 397845.59326171875'
p489
aS'refTime = 1728000'
p490
aS'size = 1'
p491
aaS'FLIGHTPLAN'
p492
a(lp493
aS'CTRLSTATE'
p494
a(lp495
aS'VESSELMODULES'
p496
a(lp497
S'FlightIntegrator'
p498
a(lp499
aaa(lp500
S'pid = 7667eb97db1842f3858bc1d9d4a6bea0'
p501
aS'name = Ast. PKQ-992'
p502
aS'type = SpaceObject'
p503
aS'sit = ORBITING'
p504
aS'landed = False'
p505
aS'landedAt ='
p506
aS'splashed = False'
p507
aS'met = 97.581306152341796'
p508
aS'lct = 97.581306152341796'
p509
aS'lastUT = -1'
p510
aS'root = 0'
p511
aS'lat = 0.98781119837709797'
p512
aS'lon = -176.28967394608603'
p513
aS'alt = 14118820071.894085'
p514
aS'hgt = -1'
p515
aS'nrm = 0,1,0'
p516
aS'rot = -0.665973067,-0.123813815,0.475614429,0.56119591'
p517
aS'CoM = 0,0,0'
p518
aS'stg = 0'
p519
aS'prst = False'
p520
aS'ref = 0'
p521
aS'ctrl = False'
p522
aS'ORBIT'
p523
a(lp524
S'SMA = 14087790131.436773'
p525
aS'ECC = 0.032341759186026414'
p526
aS'INC = 1.7252388665796188'
p527
aS'LPE = 166.30006923245384'
p528
aS'LAN = 148.8704959598403'
p529
aS'MNA = 0.12785424272855533'
p530
aS'EPH = 3662167.3689038088'
p531
aS'REF = 0'
p532
aaS'PART'
p533
a(lp534
S'name = PotatoRoid'
p535
aS'cid = 0'
p536
aS'uid = 572945027'
p537
aS'mid = 572945027'
p538
aS'launchID = 0'
p539
aS'parent = 0'
p540
aS'position = 0,0,0'
p541
aS'rotation = 0,0,0,1'
p542
aS'mirror = 1,1,1'
p543
aS'symMethod = Radial'
p544
aS'istg = 0'
p545
aS'resPri = 0'
p546
aS'dstg = 0'
p547
aS'sqor = 0'
p548
aS'sepI = 0'
p549
aS'sidx = 0'
p550
aS'attm = 0'
p551
aS'srfN = None, -1'
p552
aS'mass = 150'
p553
aS'shielded = False'
p554
aS'temp = -1'
p555
aS'tempExt = 0'
p556
aS'tempExtUnexp = 0'
p557
aS'expt = 0.100000001'
p558
aS'state = 0'
p559
aS'attached = True'
p560
aS'autostrutMode = Off'
p561
aS'rigidAttachment = False'
p562
aS'flag ='
p563
aS'rTrf ='
p564
aS'modCost = 0'
p565
aaS'ACTIONGROUPS'
p566
a(lp567
aS'DISCOVERY'
p568
a(lp569
S'state = 1'
p570
aS'lastObservedTime = 97.581306152341796'
p571
aS'lifetime = 1306165.6219482422'
p572
aS'refTime = 1728000'
p573
aS'size = 3'
p574
aaS'FLIGHTPLAN'
p575
a(lp576
aS'CTRLSTATE'
p577
a(lp578
aS'VESSELMODULES'
p579
a(lp580
S'FlightIntegrator'
p581
a(lp582
aaa(lp583
S'pid = f6c8f15c405e4b76bd01b907fa35d5a6'
p584
aS'name = Ast. KAC-057'
p585
aS'type = SpaceObject'
p586
aS'sit = ORBITING'
p587
aS'landed = False'
p588
aS'landedAt ='
p589
aS'splashed = False'
p590
aS'met = 489.10760253904834'
p591
aS'lct = 489.10760253904834'
p592
aS'lastUT = -1'
p593
aS'root = 0'
p594
aS'lat = -1.552595707431091'
p595
aS'lon = 178.76030826911051'
p596
aS'alt = 13621242247.253592'
p597
aS'hgt = -1'
p598
aS'nrm = 0,1,0'
p599
aS'rot = 0.212658256,0.73727721,-0.212613955,0.604974449'
p600
aS'CoM = 0,0,0'
p601
aS'stg = 0'
p602
aS'prst = False'
p603
aS'ref = 0'
p604
aS'ctrl = False'
p605
aS'ORBIT'
p606
a(lp607
S'SMA = 14327552836.175472'
p608
aS'ECC = 0.051224863160978483'
p609
aS'INC = 1.7714672435547949'
p610
aS'LPE = 353.85640022342233'
p611
aS'LAN = 240.37678756920775'
p612
aS'MNA = 0.064828067417102869'
p613
aS'EPH = 1495605.8678564453'
p614
aS'REF = 0'
p615
aaS'PART'
p616
a(lp617
S'name = PotatoRoid'
p618
aS'cid = 0'
p619
aS'uid = 1181685083'
p620
aS'mid = 1181685083'
p621
aS'launchID = 0'
p622
aS'parent = 0'
p623
aS'position = 0,0,0'
p624
aS'rotation = 0,0,0,1'
p625
aS'mirror = 1,1,1'
p626
aS'symMethod = Radial'
p627
aS'istg = 0'
p628
aS'resPri = 0'
p629
aS'dstg = 0'
p630
aS'sqor = 0'
p631
aS'sepI = 0'
p632
aS'sidx = 0'
p633
aS'attm = 0'
p634
aS'srfN = None, -1'
p635
aS'mass = 150'
p636
aS'shielded = False'
p637
aS'temp = -1'
p638
aS'tempExt = 0'
p639
aS'tempExtUnexp = 0'
p640
aS'expt = 0.100000001'
p641
aS'state = 0'
p642
aS'attached = True'
p643
aS'autostrutMode = Off'
p644
aS'rigidAttachment = False'
p645
aS'flag ='
p646
aS'rTrf ='
p647
aS'modCost = 0'
p648
aaS'ACTIONGROUPS'
p649
a(lp650
aS'DISCOVERY'
p651
a(lp652
S'state = 1'
p653
aS'lastObservedTime = 489.10760253904834'
p654
aS'lifetime = 802542.78259277344'
p655
aS'refTime = 1728000'
p656
aS'size = 1'
p657
aaS'FLIGHTPLAN'
p658
a(lp659
aS'CTRLSTATE'
p660
a(lp661
aS'VESSELMODULES'
p662
a(lp663
S'FlightIntegrator'
p664
a(lp665
aaa(lp666
S'pid = 52b4ca35971241c29bc7a327a10b4e65'
p667
aS'name = Ast. BFV-598'
p668
aS'type = SpaceObject'
p669
aS'sit = ORBITING'
p670
aS'landed = False'
p671
aS'landedAt ='
p672
aS'splashed = False'
p673
aS'met = 24.79999999999956'
p674
aS'lct = 24.79999999999956'
p675
aS'lastUT = -1'
p676
aS'root = 0'
p677
aS'lat = 0.9410920263638175'
p678
aS'lon = -165.55550596129612'
p679
aS'alt = 16911529763.202074'
p680
aS'hgt = -1'
p681
aS'nrm = 0,1,0'
p682
aS'rot = 0.303116769,0.314429134,-0.578063011,0.689273357'
p683
aS'CoM = 0,0,0'
p684
aS'stg = 0'
p685
aS'prst = False'
p686
aS'ref = 0'
p687
aS'ctrl = False'
p688
aS'ORBIT'
p689
a(lp690
S'SMA = 15979474675.467216'
p691
aS'ECC = 0.15228159247069967'
p692
aS'INC = 1.4725795455694553'
p693
aS'LPE = 166.46259810215815'
p694
aS'LAN = 154.74831885737194'
p695
aS'MNA = 0.19630996939833287'
p696
aS'EPH = 4005665.3029296873'
p697
aS'REF = 0'
p698
aaS'PART'
p699
a(lp700
S'name = PotatoRoid'
p701
aS'cid = 0'
p702
aS'uid = 912724354'
p703
aS'mid = 912724354'
p704
aS'launchID = 0'
p705
aS'parent = 0'
p706
aS'position = 0,0,0'
p707
aS'rotation = 0,0,0,1'
p708
aS'mirror = 1,1,1'
p709
aS'symMethod = Radial'
p710
aS'istg = 0'
p711
aS'resPri = 0'
p712
aS'dstg = 0'
p713
aS'sqor = 0'
p714
aS'sepI = 0'
p715
aS'sidx = 0'
p716
aS'attm = 0'
p717
aS'srfN = None, -1'
p718
aS'mass = 150'
p719
aS'shielded = False'
p720
aS'temp = -1'
p721
aS'tempExt = 0'
p722
aS'tempExtUnexp = 0'
p723
aS'expt = 0.100000001'
p724
aS'state = 0'
p725
aS'attached = True'
p726
aS'autostrutMode = Off'
p727
aS'rigidAttachment = False'
p728
aS'flag ='
p729
aS'rTrf ='
p730
aS'modCost = 0'
p731
aaS'ACTIONGROUPS'
p732
a(lp733
aS'DISCOVERY'
p734
a(lp735
S'state = 1'
p736
aS'lastObservedTime = 24.79999999999956'
p737
aS'lifetime = 1443357.8063964844'
p738
aS'refTime = 1728000'
p739
aS'size = 2'
p740
aaS'FLIGHTPLAN'
p741
a(lp742
aS'CTRLSTATE'
p743
a(lp744
aS'VESSELMODULES'
p745
a(lp746
S'FlightIntegrator'
p747
a(lp748
aaa(lp749
S'pid = 5d2d555fe0bf4fdaa02ee8289462491c'
p750
aS'name = Ast. VEE-846'
p751
aS'type = SpaceObject'
p752
aS'sit = ORBITING'
p753
aS'landed = False'
p754
aS'landedAt ='
p755
aS'splashed = False'
p756
aS'met = 39.800000000000622'
p757
aS'lct = 39.800000000000622'
p758
aS'lastUT = -1'
p759
aS'root = 0'
p760
aS'lat = 0.16529408311317564'
p761
aS'lon = -168.68517858173445'
p762
aS'alt = 16247994196.070869'
p763
aS'hgt = -1'
p764
aS'nrm = 0,1,0'
p765
aS'rot = -0.0203830432,0.843586206,0.0492590964,0.534340978'
p766
aS'CoM = 0,0,0'
p767
aS'stg = 0'
p768
aS'prst = False'
p769
aS'ref = 0'
p770
aS'ctrl = False'
p771
aS'ORBIT'
p772
a(lp773
S'SMA = 15452145016.716743'
p774
aS'ECC = 0.1258700079961434'
p775
aS'INC = 0.48519098628110546'
p776
aS'LPE = 148.7233643216718'
p777
aS'LAN = 171.43021623957111'
p778
aS'MNA = 0.27352185146847507'
p779
aS'EPH = 4104227.6662109373'
p780
aS'REF = 0'
p781
aaS'PART'
p782
a(lp783
S'name = PotatoRoid'
p784
aS'cid = 0'
p785
aS'uid = 1760781180'
p786
aS'mid = 1760781180'
p787
aS'launchID = 0'
p788
aS'parent = 0'
p789
aS'position = 0,0,0'
p790
aS'rotation = 0,0,0,1'
p791
aS'mirror = 1,1,1'
p792
aS'symMethod = Radial'
p793
aS'istg = 0'
p794
aS'resPri = 0'
p795
aS'dstg = 0'
p796
aS'sqor = 0'
p797
aS'sepI = 0'
p798
aS'sidx = 0'
p799
aS'attm = 0'
p800
aS'srfN = None, -1'
p801
aS'mass = 150'
p802
aS'shielded = False'
p803
aS'temp = -1'
p804
aS'tempExt = 0'
p805
aS'tempExtUnexp = 0'
p806
aS'expt = 0.100000001'
p807
aS'state = 0'
p808
aS'attached = True'
p809
aS'autostrutMode = Off'
p810
aS'rigidAttachment = False'
p811
aS'flag ='
p812
aS'rTrf ='
p813
aS'modCost = 0'
p814
aaS'ACTIONGROUPS'
p815
a(lp816
aS'DISCOVERY'
p817
a(lp818
S'state = 1'
p819
aS'lastObservedTime = 39.800000000000622'
p820
aS'lifetime = 1108766.6839599609'
p821
aS'refTime = 1728000'
p822
aS'size = 2'
p823
aaS'FLIGHTPLAN'
p824
a(lp825
aS'CTRLSTATE'
p826
a(lp827
aS'VESSELMODULES'
p828
a(lp829
S'FlightIntegrator'
p830
a(lp831
aaa(lp832
S'pid = 4bef8b23e87c4ea8902c725fc12f4fed'
p833
aS'name = Ast. JQN-498'
p834
aS'type = SpaceObject'
p835
aS'sit = ORBITING'
p836
aS'landed = False'
p837
aS'landedAt ='
p838
aS'splashed = False'
p839
aS'met = 69.820000000003247'
p840
aS'lct = 69.820000000003247'
p841
aS'lastUT = -1'
p842
aS'root = 0'
p843
aS'lat = -0.10630763741959239'
p844
aS'lon = -179.37442956131522'
p845
aS'alt = 13991545120.004999'
p846
aS'hgt = -1'
p847
aS'nrm = 0,1,0'
p848
aS'rot = 0.341969758,-0.607593358,0.534953952,0.477191061'
p849
aS'CoM = 0,0,0'
p850
aS'stg = 0'
p851
aS'prst = False'
p852
aS'ref = 0'
p853
aS'ctrl = False'
p854
aS'ORBIT'
p855
a(lp856
S'SMA = 14418576344.601263'
p857
aS'ECC = 0.055302823635052782'
p858
aS'INC = 0.10780834299418159'
p859
aS'LPE = 341.57412476864113'
p860
aS'LAN = 280.25491810208825'
p861
aS'MNA = 0.014730383434979325'
p862
aS'EPH = 2114702.9315722655'
p863
aS'REF = 0'
p864
aaS'PART'
p865
a(lp866
S'name = PotatoRoid'
p867
aS'cid = 0'
p868
aS'uid = 2102239721'
p869
aS'mid = 2102239721'
p870
aS'launchID = 0'
p871
aS'parent = 0'
p872
aS'position = 0,0,0'
p873
aS'rotation = 0,0,0,1'
p874
aS'mirror = 1,1,1'
p875
aS'symMethod = Radial'
p876
aS'istg = 0'
p877
aS'resPri = 0'
p878
aS'dstg = 0'
p879
aS'sqor = 0'
p880
aS'sepI = 0'
p881
aS'sidx = 0'
p882
aS'attm = 0'
p883
aS'srfN = None, -1'
p884
aS'mass = 150'
p885
aS'shielded = False'
p886
aS'temp = -1'
p887
aS'tempExt = 0'
p888
aS'tempExtUnexp = 0'
p889
aS'expt = 0.100000001'
p890
aS'state = 0'
p891
aS'attached = True'
p892
aS'autostrutMode = Off'
p893
aS'rigidAttachment = False'
p894
aS'flag ='
p895
aS'rTrf ='
p896
aS'modCost = 0'
p897
aaS'ACTIONGROUPS'
p898
a(lp899
aS'DISCOVERY'
p900
a(lp901
S'state = 1'
p902
aS'lastObservedTime = 69.820000000003247'
p903
aS'lifetime = 1237971.1761474609'
p904
aS'refTime = 1728000'
p905
aS'size = 2'
p906
aaS'FLIGHTPLAN'
p907
a(lp908
aS'CTRLSTATE'
p909
a(lp910
aS'VESSELMODULES'
p911
a(lp912
S'FlightIntegrator'
p913
a(lp914
aaa(lp915
S'pid = 7827c616f289427fbaba6d8388654544'
p916
aS'name = Ast. AWQ-364'
p917
aS'type = SpaceObject'
p918
aS'sit = ORBITING'
p919
aS'landed = False'
p920
aS'landedAt ='
p921
aS'splashed = False'
p922
aS'met = 99.819999999997279'
p923
aS'lct = 99.819999999997279'
p924
aS'lastUT = -1'
p925
aS'root = 0'
p926
aS'lat = -0.29659283736879727'
p927
aS'lon = -170.28698108413116'
p928
aS'alt = 14246664183.930298'
p929
aS'hgt = -1'
p930
aS'nrm = 0,1,0'
p931
aS'rot = 0.574753225,-0.0172864143,-0.600132465,0.556058347'
p932
aS'CoM = 0,0,0'
p933
aS'stg = 0'
p934
aS'prst = False'
p935
aS'ref = 0'
p936
aS'ctrl = False'
p937
aS'ORBIT'
p938
a(lp939
S'SMA = 14037411843.196138'
p940
aS'ECC = 0.033753887020459478'
p941
aS'INC = 0.89164401503226765'
p942
aS'LPE = 25.630071651795369'
p943
aS'LAN = 350.3688090983527'
p944
aS'MNA = -0.37386104795791653'
p945
aS'EPH = 4429189.7736132815'
p946
aS'REF = 0'
p947
aaS'PART'
p948
a(lp949
S'name = PotatoRoid'
p950
aS'cid = 0'
p951
aS'uid = 532831473'
p952
aS'mid = 532831473'
p953
aS'launchID = 0'
p954
aS'parent = 0'
p955
aS'position = 0,0,0'
p956
aS'rotation = 0,0,0,1'
p957
aS'mirror = 1,1,1'
p958
aS'symMethod = Radial'
p959
aS'istg = 0'
p960
aS'resPri = 0'
p961
aS'dstg = 0'
p962
aS'sqor = 0'
p963
aS'sepI = 0'
p964
aS'sidx = 0'
p965
aS'attm = 0'
p966
aS'srfN = None, -1'
p967
aS'mass = 150'
p968
aS'shielded = False'
p969
aS'temp = -1'
p970
aS'tempExt = 0'
p971
aS'tempExtUnexp = 0'
p972
aS'expt = 0.100000001'
p973
aS'state = 0'
p974
aS'attached = True'
p975
aS'autostrutMode = Off'
p976
aS'rigidAttachment = False'
p977
aS'flag ='
p978
aS'rTrf ='
p979
aS'modCost = 0'
p980
aaS'ACTIONGROUPS'
p981
a(lp982
aS'DISCOVERY'
p983
a(lp984
S'state = 1'
p985
aS'lastObservedTime = 99.819999999997279'
p986
aS'lifetime = 91237.554931640625'
p987
aS'refTime = 1728000'
p988
aS'size = 2'
p989
aaS'FLIGHTPLAN'
p990
a(lp991
aS'CTRLSTATE'
p992
a(lp993
aS'VESSELMODULES'
p994
a(lp995
S'FlightIntegrator'
p996
a(lp997
aaa(lp998
S'pid = 472146fcf45b490e8bafe4b750581fec'
p999
aS'name = Ast. FMU-823'
p1000
aS'type = SpaceObject'
p1001
aS'sit = ORBITING'
p1002
aS'landed = False'
p1003
aS'landedAt ='
p1004
aS'splashed = False'
p1005
aS'met = 126.06756835937119'
p1006
aS'lct = 126.06756835937119'
p1007
aS'lastUT = -1'
p1008
aS'root = 0'
p1009
aS'lat = 0.33357108673019137'
p1010
aS'lon = -174.24055199524338'
p1011
aS'alt = 15986162346.29071'
p1012
aS'hgt = -1'
p1013
aS'nrm = 0,1,0'
p1014
aS'rot = -0.440023422,-0.475647897,-0.748399377,0.141551748'
p1015
aS'CoM = 0,0,0'
p1016
aS'stg = 0'
p1017
aS'prst = False'
p1018
aS'ref = 0'
p1019
aS'ctrl = False'
p1020
aS'ORBIT'
p1021
a(lp1022
S'SMA = 16126550062.587275'
p1023
aS'ECC = 0.15980704639539298'
p1024
aS'INC = 0.35074826538857357'
p1025
aS'LPE = 173.84156698338109'
p1026
aS'LAN = 113.8701780869655'
p1027
aS'MNA = -0.0001600724560215943'
p1028
aS'EPH = 2757916.6803613282'
p1029
aS'REF = 0'
p1030
aaS'PART'
p1031
a(lp1032
S'name = PotatoRoid'
p1033
aS'cid = 0'
p1034
aS'uid = 1168916015'
p1035
aS'mid = 1168916015'
p1036
aS'launchID = 0'
p1037
aS'parent = 0'
p1038
aS'position = 0,0,0'
p1039
aS'rotation = 0,0,0,1'
p1040
aS'mirror = 1,1,1'
p1041
aS'symMethod = Radial'
p1042
aS'istg = 0'
p1043
aS'resPri = 0'
p1044
aS'dstg = 0'
p1045
aS'sqor = 0'
p1046
aS'sepI = 0'
p1047
aS'sidx = 0'
p1048
aS'attm = 0'
p1049
aS'srfN = None, -1'
p1050
aS'mass = 150'
p1051
aS'shielded = False'
p1052
aS'temp = -1'
p1053
aS'tempExt = 0'
p1054
aS'tempExtUnexp = 0'
p1055
aS'expt = 0.100000001'
p1056
aS'state = 0'
p1057
aS'attached = True'
p1058
aS'autostrutMode = Off'
p1059
aS'rigidAttachment = False'
p1060
aS'flag ='
p1061
aS'rTrf ='
p1062
aS'modCost = 0'
p1063
aaS'ACTIONGROUPS'
p1064
a(lp1065
aS'DISCOVERY'
p1066
a(lp1067
S'state = 1'
p1068
aS'lastObservedTime = 126.06756835937119'
p1069
aS'lifetime = 202566.08276367188'
p1070
aS'refTime = 1728000'
p1071
aS'size = 2'
p1072
aaS'FLIGHTPLAN'
p1073
a(lp1074
aS'CTRLSTATE'
p1075
a(lp1076
aS'VESSELMODULES'
p1077
a(lp1078
S'FlightIntegrator'
p1079
a(lp1080
aaa(lp1081
S'pid = 69ae5d9ac3314f92bb5ce52212bad58f'
p1082
aS'name = Ast. TJP-771'
p1083
aS'type = SpaceObject'
p1084
aS'sit = ORBITING'
p1085
aS'landed = False'
p1086
aS'landedAt ='
p1087
aS'splashed = False'
p1088
aS'met = 327.20979492183352'
p1089
aS'lct = 327.20979492183352'
p1090
aS'lastUT = -1'
p1091
aS'root = 0'
p1092
aS'lat = -0.37062442854930816'
p1093
aS'lon = -178.51254872761754'
p1094
aS'alt = 13832382182.987028'
p1095
aS'hgt = -1'
p1096
aS'nrm = 0,1,0'
p1097
aS'rot = -0.158420354,-0.448530614,0.870694399,0.124957949'
p1098
aS'CoM = 0,0,0'
p1099
aS'stg = 0'
p1100
aS'prst = False'
p1101
aS'ref = 0'
p1102
aS'ctrl = False'
p1103
aS'ORBIT'
p1104
a(lp1105
S'SMA = 13917831061.463621'
p1106
aS'ECC = 0.02377518893682825'
p1107
aS'INC = 0.75564445700557881'
p1108
aS'LPE = 332.68228161315886'
p1109
aS'LAN = 332.3897642162529'
p1110
aS'MNA = 0.2778773244242182'
p1111
aS'EPH = 3624538.9895800781'
p1112
aS'REF = 0'
p1113
aaS'PART'
p1114
a(lp1115
S'name = PotatoRoid'
p1116
aS'cid = 0'
p1117
aS'uid = 880086271'
p1118
aS'mid = 880086271'
p1119
aS'launchID = 0'
p1120
aS'parent = 0'
p1121
aS'position = 0,0,0'
p1122
aS'rotation = 0,0,0,1'
p1123
aS'mirror = 1,1,1'
p1124
aS'symMethod = Radial'
p1125
aS'istg = 0'
p1126
aS'resPri = 0'
p1127
aS'dstg = 0'
p1128
aS'sqor = 0'
p1129
aS'sepI = 0'
p1130
aS'sidx = 0'
p1131
aS'attm = 0'
p1132
aS'srfN = None, -1'
p1133
aS'mass = 150'
p1134
aS'shielded = False'
p1135
aS'temp = -1'
p1136
aS'tempExt = 0'
p1137
aS'tempExtUnexp = 0'
p1138
aS'expt = 0.100000001'
p1139
aS'state = 0'
p1140
aS'attached = True'
p1141
aS'autostrutMode = Off'
p1142
aS'rigidAttachment = False'
p1143
aS'flag ='
p1144
aS'rTrf ='
p1145
aS'modCost = 0'
p1146
aaS'ACTIONGROUPS'
p1147
a(lp1148
aS'DISCOVERY'
p1149
a(lp1150
S'state = 1'
p1151
aS'lastObservedTime = 327.20979492183352'
p1152
aS'lifetime = 193789.80560302734'
p1153
aS'refTime = 1728000'
p1154
aS'size = 2'
p1155
aaS'FLIGHTPLAN'
p1156
a(lp1157
aS'CTRLSTATE'
p1158
a(lp1159
aS'VESSELMODULES'
p1160
a(lp1161
S'FlightIntegrator'
p1162
a(lp1163
aaa(lp1164
S'pid = 1aa3d06dd242477bb3ebb9516a9043fb'
p1165
aS'name = squid MK I Debris'
p1166
aS'type = Debris'
p1167
aS'sit = FLYING'
p1168
aS'landed = False'
p1169
aS'landedAt ='
p1170
aS'splashed = False'
p1171
aS'met = 5.0199999999954343'
p1172
aS'lct = 904.112558593377'
p1173
aS'lastUT = 909.13255859337244'
p1174
aS'root = 0'
p1175
aS'lat = 0.079029771257357564'
p1176
aS'lon = -74.66704976004354'
p1177
aS'alt = 155.17762577650137'
p1178
aS'hgt = 90.4165573'
p1179
aS'nrm = 0.157562226,0.730298042,-0.664709985'
p1180
aS'rot = -0.427435726,-0.108382493,0.111587696,0.890561759'
p1181
aS'CoM = 0,0,0'
p1182
aS'stg = 0'
p1183
aS'prst = False'
p1184
aS'ref = 0'
p1185
aS'ctrl = False'
p1186
aS'cPch = 0'
p1187
aS'cHdg = 0'
p1188
aS'cMod = -1'
p1189
aS'ORBIT'
p1190
a(lp1191
S'SMA = 302683.07732870866'
p1192
aS'ECC = 0.98279317268251198'
p1193
aS'INC = 18.535451057332232'
p1194
aS'LPE = 180.22560815608651'
p1195
aS'LAN = 30.285009474778406'
p1196
aS'MNA = -3.1330489455378956'
p1197
aS'EPH = 909.13255859337244'
p1198
aS'REF = 1'
p1199
aaS'PART'
p1200
a(lp1201
S'name = SSME'
p1202
aS'cid = 4294606422'
p1203
aS'uid = 397703612'
p1204
aS'mid = 2919097981'
p1205
aS'launchID = 6'
p1206
aS'parent = 0'
p1207
aS'position = 0,0,0'
p1208
aS'rotation = 0,0,0,1'
p1209
aS'mirror = 1,1,1'
p1210
aS'symMethod = Radial'
p1211
aS'istg = 0'
p1212
aS'resPri = 0'
p1213
aS'dstg = 0'
p1214
aS'sqor = 0'
p1215
aS'sepI = -1'
p1216
aS'sidx = 0'
p1217
aS'attm = 1'
p1218
aS'srfN = , -1'
p1219
aS'attN = top, -1'
p1220
aS'attN = bottom, -1'
p1221
aS'mass = 4'
p1222
aS'shielded = False'
p1223
aS'temp = 335.08548399518003'
p1224
aS'tempExt = 320.04088079656833'
p1225
aS'tempExtUnexp = 320.03998200210998'
p1226
aS'expt = 0.5'
p1227
aS'state = 1'
p1228
aS'attached = False'
p1229
aS'autostrutMode = Off'
p1230
aS'rigidAttachment = False'
p1231
aS'flag = Squad/Flags/rings'
p1232
aS'rTrf = SSME'
p1233
aS'modCost = 0'
p1234
aS'EVENTS'
p1235
a(lp1236
aS'ACTIONS'
p1237
a(lp1238
aS'PARTDATA'
p1239
a(lp1240
aS'MODULE'
p1241
a(lp1242
S'name = ModuleEnginesFX'
p1243
aS'isEnabled = True'
p1244
aS'staged = True'
p1245
aS'flameout = True'
p1246
aS'EngineIgnited = True'
p1247
aS'engineShutdown = False'
p1248
aS'currentThrottle = 0'
p1249
aS'thrustPercentage = 100'
p1250
aS'manuallyOverridden = False'
p1251
aS'stagingEnabled = True'
p1252
aS'EVENTS'
p1253
a(lp1254
aS'ACTIONS'
p1255
a(lp1256
S'OnAction'
p1257
a(lp1258
S'actionGroup = None'
p1259
aaS'ShutdownAction'
p1260
a(lp1261
S'actionGroup = None'
p1262
aaS'ActivateAction'
p1263
a(lp1264
S'actionGroup = None'
p1265
aaaS'UPGRADESAPPLIED'
p1266
a(lp1267
aaS'MODULE'
p1268
a(lp1269
S'name = ModuleAlternator'
p1270
aS'isEnabled = True'
p1271
aS'stagingEnabled = True'
p1272
aS'EVENTS'
p1273
a(lp1274
aS'ACTIONS'
p1275
a(lp1276
aS'UPGRADESAPPLIED'
p1277
a(lp1278
aaS'MODULE'
p1279
a(lp1280
S'name = ModuleJettison'
p1281
aS'isEnabled = True'
p1282
aS'isJettisoned = True'
p1283
aS'shroudHideOverride = False'
p1284
aS'stagingEnabled = True'
p1285
aS'EVENTS'
p1286
a(lp1287
aS'ACTIONS'
p1288
a(lp1289
S'JettisonAction'
p1290
a(lp1291
S'actionGroup = None'
p1292
aaaS'UPGRADESAPPLIED'
p1293
a(lp1294
aaS'MODULE'
p1295
a(lp1296
S'name = ModuleGimbal'
p1297
aS'isEnabled = True'
p1298
aS'gimbalLock = False'
p1299
aS'gimbalLimiter = 100'
p1300
aS'currentShowToggles = False'
p1301
aS'enableYaw = True'
p1302
aS'enablePitch = True'
p1303
aS'enableRoll = True'
p1304
aS'gimbalActive = True'
p1305
aS'stagingEnabled = True'
p1306
aS'EVENTS'
p1307
a(lp1308
aS'ACTIONS'
p1309
a(lp1310
S'ToggleAction'
p1311
a(lp1312
S'actionGroup = None'
p1313
aaS'LockAction'
p1314
a(lp1315
S'actionGroup = None'
p1316
aaS'FreeAction'
p1317
a(lp1318
S'actionGroup = None'
p1319
aaS'TogglePitchAction'
p1320
a(lp1321
S'actionGroup = None'
p1322
aaS'ToggleYawAction'
p1323
a(lp1324
S'actionGroup = None'
p1325
aaS'ToggleRollAction'
p1326
a(lp1327
S'actionGroup = None'
p1328
aaaS'UPGRADESAPPLIED'
p1329
a(lp1330
aaS'MODULE'
p1331
a(lp1332
S'name = FXModuleAnimateThrottle'
p1333
aS'isEnabled = True'
p1334
aS'animState = 0.105828069'
p1335
aS'stagingEnabled = True'
p1336
aS'EVENTS'
p1337
a(lp1338
aS'ACTIONS'
p1339
a(lp1340
aS'UPGRADESAPPLIED'
p1341
a(lp1342
aaS'MODULE'
p1343
a(lp1344
S'name = ModuleTestSubject'
p1345
aS'isEnabled = True'
p1346
aS'stagingEnabled = True'
p1347
aS'EVENTS'
p1348
a(lp1349
aS'ACTIONS'
p1350
a(lp1351
aS'UPGRADESAPPLIED'
p1352
a(lp1353
aaS'MODULE'
p1354
a(lp1355
S'name = ModuleSurfaceFX'
p1356
aS'isEnabled = True'
p1357
aS'stagingEnabled = True'
p1358
aS'EVENTS'
p1359
a(lp1360
aS'ACTIONS'
p1361
a(lp1362
aS'UPGRADESAPPLIED'
p1363
a(lp1364
aaaS'ACTIONGROUPS'
p1365
a(lp1366
S'Stage = True, 885.252558593394'
p1367
aS'Gear = False, 0'
p1368
aS'Light = False, 0'
p1369
aS'RCS = False, 0'
p1370
aS'SAS = True, 883.732558593396'
p1371
aS'Brakes = False, 0'
p1372
aS'Abort = False, 0'
p1373
aS'Custom01 = False, 0'
p1374
aS'Custom02 = False, 0'
p1375
aS'Custom03 = False, 0'
p1376
aS'Custom04 = False, 0'
p1377
aS'Custom05 = False, 0'
p1378
aS'Custom06 = False, 0'
p1379
aS'Custom07 = False, 0'
p1380
aS'Custom08 = False, 0'
p1381
aS'Custom09 = False, 0'
p1382
aS'Custom10 = False, 0'
p1383
aaS'DISCOVERY'
p1384
a(lp1385
S'state = -1'
p1386
aS'lastObservedTime = 0'
p1387
aS'lifetime = Infinity'
p1388
aS'refTime = Infinity'
p1389
aS'size = 2'
p1390
aaS'FLIGHTPLAN'
p1391
a(lp1392
aS'CTRLSTATE'
p1393
a(lp1394
S'pitch = 0'
p1395
aS'yaw = 0'
p1396
aS'roll = 0'
p1397
aS'trimPitch = 0'
p1398
aS'trimYaw = 0'
p1399
aS'trimRoll = 0'
p1400
aS'mainThrottle = 1'
p1401
aaS'VESSELMODULES'
p1402
a(lp1403
S'FlightIntegrator'
p1404
a(lp1405
aaa(lp1406
(lp1407
S'name = Jebediah Kerman'
p1408
aS'gender = Male'
p1409
aS'type = Crew'
p1410
aS'trait = Pilot'
p1411
aS'brave = 0.5'
p1412
aS'dumb = 0.5'
p1413
aS'badS = True'
p1414
aS'veteran = True'
p1415
aS'tour = False'
p1416
aS'state = Missing'
p1417
aS'inactive = False'
p1418
aS'inactiveTimeEnd = 0'
p1419
aS'gExperienced = 0'
p1420
aS'outDueToG = False'
p1421
aS'ToD = 7818.79131835926'
p1422
aS'idx = 0'
p1423
aS'extraXP = 0'
p1424
aS'CAREER_LOG'
p1425
a(lp1426
S'flight = 0'
p1427
aaS'FLIGHT_LOG'
p1428
a(lp1429
S'flight = 0'
p1430
aS'0 = Flight,Kerbin'
p1431
aS'0 = Suborbit,Kerbin'
p1432
aS'0 = Orbit,Kerbin'
p1433
aaa(lp1434
S'name = Bill Kerman'
p1435
aS'gender = Male'
p1436
aS'type = Crew'
p1437
aS'trait = Engineer'
p1438
aS'brave = 0.5'
p1439
aS'dumb = 0.800000012'
p1440
aS'badS = False'
p1441
aS'veteran = True'
p1442
aS'tour = False'
p1443
aS'state = Missing'
p1444
aS'inactive = False'
p1445
aS'inactiveTimeEnd = 0'
p1446
aS'gExperienced = 0'
p1447
aS'outDueToG = False'
p1448
aS'ToD = 2729.172558593536'
p1449
aS'idx = 0'
p1450
aS'extraXP = 0'
p1451
aS'CAREER_LOG'
p1452
a(lp1453
S'flight = 3'
p1454
aS'0 = Flight,Kerbin'
p1455
aS'0 = Land,Kerbin'
p1456
aS'0 = Recover'
p1457
aS'1 = Recover'
p1458
aS'2 = Recover'
p1459
aaS'FLIGHT_LOG'
p1460
a(lp1461
S'flight = 3'
p1462
aS'3 = Land,Kerbin'
p1463
aS'3 = Flight,Kerbin'
p1464
aaa(lp1465
S'name = Bob Kerman'
p1466
aS'gender = Male'
p1467
aS'type = Crew'
p1468
aS'trait = Scientist'
p1469
aS'brave = 0.300000012'
p1470
aS'dumb = 0.100000001'
p1471
aS'badS = False'
p1472
aS'veteran = True'
p1473
aS'tour = False'
p1474
aS'state = Missing'
p1475
aS'inactive = False'
p1476
aS'inactiveTimeEnd = 0'
p1477
aS'gExperienced = 0'
p1478
aS'outDueToG = False'
p1479
aS'ToD = 2741.5525585935247'
p1480
aS'idx = 0'
p1481
aS'extraXP = 0'
p1482
aS'CAREER_LOG'
p1483
a(lp1484
S'flight = 0'
p1485
aaS'FLIGHT_LOG'
p1486
a(lp1487
S'flight = 0'
p1488
aaa(lp1489
S'name = Valentina Kerman'
p1490
aS'gender = Female'
p1491
aS'type = Crew'
p1492
aS'trait = Pilot'
p1493
aS'brave = 0.550000012'
p1494
aS'dumb = 0.400000006'
p1495
aS'badS = True'
p1496
aS'veteran = True'
p1497
aS'tour = False'
p1498
aS'state = Missing'
p1499
aS'inactive = False'
p1500
aS'inactiveTimeEnd = 0'
p1501
aS'gExperienced = 0'
p1502
aS'outDueToG = False'
p1503
aS'ToD = 7736.311318359335'
p1504
aS'idx = 0'
p1505
aS'extraXP = 0'
p1506
aS'CAREER_LOG'
p1507
a(lp1508
S'flight = 0'
p1509
aaS'FLIGHT_LOG'
p1510
a(lp1511
S'flight = 0'
p1512
aS'0 = Flight,Kerbin'
p1513
aS'0 = Suborbit,Kerbin'
p1514
aS'0 = Orbit,Kerbin'
p1515
aaa(lp1516
S'name = Tamlee Kerman'
p1517
aS'gender = Female'
p1518
aS'type = Crew'
p1519
aS'trait = Pilot'
p1520
aS'brave = 0.999966443'
p1521
aS'dumb = 0.62242502'
p1522
aS'badS = False'
p1523
aS'veteran = False'
p1524
aS'tour = False'
p1525
aS'state = Missing'
p1526
aS'inactive = False'
p1527
aS'inactiveTimeEnd = 0'
p1528
aS'gExperienced = 0'
p1529
aS'outDueToG = False'
p1530
aS'ToD = 7892.1297949215013'
p1531
aS'idx = 0'
p1532
aS'extraXP = 0'
p1533
aS'CAREER_LOG'
p1534
a(lp1535
S'flight = 1'
p1536
aS'0 = Flight,Kerbin'
p1537
aS'0 = Land,Kerbin'
p1538
aS'0 = Die'
p1539
aaS'FLIGHT_LOG'
p1540
a(lp1541
S'flight = 1'
p1542
aaa(lp1543
S'name = Theofred Kerman'
p1544
aS'gender = Male'
p1545
aS'type = Crew'
p1546
aS'trait = Engineer'
p1547
aS'brave = 0.609479427'
p1548
aS'dumb = 0.533967972'
p1549
aS'badS = True'
p1550
aS'veteran = False'
p1551
aS'tour = False'
p1552
aS'state = Available'
p1553
aS'inactive = False'
p1554
aS'inactiveTimeEnd = 0'
p1555
aS'gExperienced = 0'
p1556
aS'outDueToG = False'
p1557
aS'ToD = 206169.55777465788'
p1558
aS'idx = -1'
p1559
aS'extraXP = 0'
p1560
aS'CAREER_LOG'
p1561
a(lp1562
S'flight = 0'
p1563
aaS'FLIGHT_LOG'
p1564
a(lp1565
S'flight = 0'
p1566
aaa(lp1567
S'name = Dunbur Kerman'
p1568
aS'gender = Male'
p1569
aS'type = Crew'
p1570
aS'trait = Engineer'
p1571
aS'brave = 0.552617192'
p1572
aS'dumb = 0.567619085'
p1573
aS'badS = False'
p1574
aS'veteran = False'
p1575
aS'tour = False'
p1576
aS'state = Available'
p1577
aS'inactive = False'
p1578
aS'inactiveTimeEnd = 0'
p1579
aS'gExperienced = 0'
p1580
aS'outDueToG = False'
p1581
aS'ToD = 99147.595036620784'
p1582
aS'idx = -1'
p1583
aS'extraXP = 0'
p1584
aS'CAREER_LOG'
p1585
a(lp1586
S'flight = 0'
p1587
aaS'FLIGHT_LOG'
p1588
a(lp1589
S'flight = 0'
p1590
aaa(lp1591
S'name = Kathvy Kerman'
p1592
aS'gender = Female'
p1593
aS'type = Crew'
p1594
aS'trait = Engineer'
p1595
aS'brave = 0.994899511'
p1596
aS'dumb = 0.6183182'
p1597
aS'badS = False'
p1598
aS'veteran = False'
p1599
aS'tour = False'
p1600
aS'state = Available'
p1601
aS'inactive = False'
p1602
aS'inactiveTimeEnd = 0'
p1603
aS'gExperienced = 0'
p1604
aS'outDueToG = False'
p1605
aS'ToD = 256146.11035644499'
p1606
aS'idx = -1'
p1607
aS'extraXP = 0'
p1608
aS'CAREER_LOG'
p1609
a(lp1610
S'flight = 0'
p1611
aaS'FLIGHT_LOG'
p1612
a(lp1613
S'flight = 0'
p1614
aaa(lp1615
S'name = Madcine Kerman'
p1616
aS'gender = Female'
p1617
aS'type = Crew'
p1618
aS'trait = Engineer'
p1619
aS'brave = 0.323472649'
p1620
aS'dumb = 0.791571498'
p1621
aS'badS = False'
p1622
aS'veteran = False'
p1623
aS'tour = False'
p1624
aS'state = Available'
p1625
aS'inactive = False'
p1626
aS'inactiveTimeEnd = 0'
p1627
aS'gExperienced = 0'
p1628
aS'outDueToG = False'
p1629
aS'ToD = 258773.02380859343'
p1630
aS'idx = -1'
p1631
aS'extraXP = 0'
p1632
aS'CAREER_LOG'
p1633
a(lp1634
S'flight = 0'
p1635
aaS'FLIGHT_LOG'
p1636
a(lp1637
S'flight = 0'
p1638
aaa(lp1639
S'name = Dilin Kerman'
p1640
aS'gender = Female'
p1641
aS'type = Crew'
p1642
aS'trait = Scientist'
p1643
aS'brave = 0.815798879'
p1644
aS'dumb = 0.865727603'
p1645
aS'badS = False'
p1646
aS'veteran = False'
p1647
aS'tour = False'
p1648
aS'state = Available'
p1649
aS'inactive = False'
p1650
aS'inactiveTimeEnd = 0'
p1651
aS'gExperienced = 0'
p1652
aS'outDueToG = False'
p1653
aS'ToD = 198382.54453002897'
p1654
aS'idx = -1'
p1655
aS'extraXP = 0'
p1656
aS'CAREER_LOG'
p1657
a(lp1658
S'flight = 0'
p1659
aaS'FLIGHT_LOG'
p1660
a(lp1661
S'flight = 0'
p1662
aaa(lp1663
S'name = Aldrie Kerman'
p1664
aS'gender = Male'
p1665
aS'type = Crew'
p1666
aS'trait = Pilot'
p1667
aS'brave = 0.169364333'
p1668
aS'dumb = 0.174514055'
p1669
aS'badS = False'
p1670
aS'veteran = False'
p1671
aS'tour = False'
p1672
aS'state = Missing'
p1673
aS'inactive = False'
p1674
aS'inactiveTimeEnd = 0'
p1675
aS'gExperienced = 0'
p1676
aS'outDueToG = False'
p1677
aS'ToD = 8104.1125585933769'
p1678
aS'idx = 0'
p1679
aS'extraXP = 0'
p1680
aS'CAREER_LOG'
p1681
a(lp1682
S'flight = 1'
p1683
aS'0 = Flight,Kerbin'
p1684
aS'0 = Land,Kerbin'
p1685
aS'0 = Die'
p1686
aaS'FLIGHT_LOG'
p1687
a(lp1688
S'flight = 1'
p1689
aaa(lp1690
S'S'
aS'S'
aS'S'
aS'S'
aS'S'
aS'S'
aS'S'
aS'S'
aS'S'
aS'S'
aS'S'
aS'S'
aS'S'
aS'S'
aS'S'
aS'S'
aS'S'
aS'S'
aS'S'
aS'S'
aS'S'
aS'S'
aS'S'
aS'S'
aS'S'
aS'S'
aS'S'
aS'S'
aS'S'
aS'S'
aS'S'
aS'S'
aS'S'
aS'S'
aS'S'
aS'S'
aS'S'
aS'S'
aS'S'
aS'S'
aS'S'
aS'S'
aS'S'
aS'S'
aS'S'
aS'S'
aS'S'
aS'S'
aS'S'
aS'SpaceCenter/VehicleAssemblyBuilding/Facility/ksp_pad_cylTank'
p1691
aS'SpaceCenter/VehicleAssemblyBuilding/Facility/Tank'
p1692
aS'SpaceCenter/VehicleAssemblyBuilding/Facility/mainBuilding'
p1693
aS'SpaceCenter/VehicleAssemblyBuilding/Facility/PodMemorial'
p1694
aS'SpaceCenter/TrackingStation/Facility/dish_array/dish_south'
p1695
aS'SpaceCenter/TrackingStation/Facility/dish_array/dish_north'
p1696
aS'SpaceCenter/TrackingStation/Facility/dish_array/dish_east'
p1697
aS'SpaceCenter/TrackingStation/Facility/MainBuilding'
p1698
aS'SpaceCenter/SpaceplaneHangar/Facility/Tank'
p1699
aS'SpaceCenter/SpaceplaneHangar/Facility/ksp_pad_cylTank'
p1700
aS'SpaceCenter/SpaceplaneHangar/Facility/ksp_pad_waterTower'
p1701
aS'SpaceCenter/SpaceplaneHangar/Facility/mainBuilding'
p1702
aS'SpaceCenter/Runway/Facility/model_runway_new_v43/runway_light_SE'
p1703
aS'SpaceCenter/Runway/Facility/model_runway_new_v43/runway_light_NE'
p1704
aS'SpaceCenter/Runway/Facility/model_runway_new_v43/runway_light_NW'
p1705
aS'SpaceCenter/Runway/Facility/model_runway_new_v43/runway_light_SW'
p1706
aS'SpaceCenter/Runway/Facility/End09'
p1707
aS'SpaceCenter/Runway/Facility/End27'
p1708
aS'SpaceCenter/Runway/Facility/Section1'
p1709
aS'SpaceCenter/Runway/Facility/Section2'
p1710
aS'SpaceCenter/Runway/Facility/Section3'
p1711
aS'SpaceCenter/Runway/Facility/Section4'
p1712
aS'SpaceCenter/ResearchAndDevelopment/Facility/ksp_pad_cylTank'
p1713
aS'SpaceCenter/ResearchAndDevelopment/Facility/SmallLab'
p1714
aS'SpaceCenter/ResearchAndDevelopment/Facility/CentralBuilding'
p1715
aS'SpaceCenter/ResearchAndDevelopment/Facility/MainBuilding'
p1716
aS'SpaceCenter/ResearchAndDevelopment/Facility/CornerLab'
p1717
aS'SpaceCenter/ResearchAndDevelopment/Facility/WindTunnel'
p1718
aS'SpaceCenter/ResearchAndDevelopment/Facility/Observatory'
p1719
aS'SpaceCenter/ResearchAndDevelopment/Facility/SideLab'
p1720
aS'SpaceCenter/MissionControl/Facility/building'
p1721
aS'SpaceCenter/LaunchPad/Facility/LaunchPadMedium/ksp_pad_cylTank'
p1722
aS'SpaceCenter/LaunchPad/Facility/LaunchPadMedium/ksp_pad_launchPad'
p1723
aS'SpaceCenter/LaunchPad/Facility/LaunchPadMedium/ksp_pad_sphereTank'
p1724
aS'SpaceCenter/LaunchPad/Facility/LaunchPadMedium/ksp_pad_waterTower'
p1725
aS'SpaceCenter/LaunchPad/Facility/LaunchPadMedium/KSCFlagPoleLaunchPad'
p1726
aS'SpaceCenter/FlagPole/Facility'
p1727
aS'SpaceCenter/AstronautComplex/Facility/building'
p1728
aS'SpaceCenter/Administration/Facility/mainBuilding'
p1729
aS'SpaceCenter/TrackingStation/Facility/building'
p1730
aS'SpaceCenter/TrackingStation/Facility/OuterDish'
p1731
aS'SpaceCenter/LaunchPad/Facility/Flag'
p1732
aS'SpaceCenter/Administration/Facility/Building'
p1733
aS'SpaceCenter/AstronautComplex/Facility/mainBuilding'
p1734
aS'SpaceCenter/MissionControl/Facility/mainBuilding'
p1735
aS'SpaceCenter/ResearchAndDevelopment/Facility/mainBuilding'
p1736
aS'SpaceCenter/ResearchAndDevelopment/Facility/ForeverAlone'
p1737
aS'SpaceCenter/SpaceplaneHangar/Facility/Building'
p1738
aS'SpaceCenter/VehicleAssemblyBuilding/Facility/VAB2'
p1739
a(lp1740
S'1367ac91c4f64aad9c6256df21793d2e'
p1741
a(dp1742
S'Bob Kerman'
p1743
(lp1744
S'184.68.166.106'
p1745
aS'24.87.29.11'
p1746
asS'SpaceCenter/LaunchPad/Facility/LaunchPadMedium/ksp_pad_sphereTank'
p1747
(lp1748
S'184.68.166.106'
p1749
aS'184.68.166.106'
p1750
aS'184.68.166.106'
p1751
asS'SpaceCenter/LaunchPad/Facility/LaunchPadMedium/ksp_pad_launchPad'
p1752
(lp1753
g1749
ag1750
ag1751
asS'SpaceCenter/Runway/Facility/Section1'
p1754
(lp1755
g1749
ag1750
ag1751
asS'SpaceCenter/Runway/Facility/Section2'
p1756
(lp1757
g1749
ag1750
ag1751
asS'6b06b1a98db44bc59efd70e7ec2ae764'
p1758
(lp1759
g1745
ag1746
aS'24.87.29.11'
p1760
ag1749
ag1750
ag1751
asS'SpaceCenter/Runway/Facility/Section4'
p1761
(lp1762
g1749
ag1750
ag1751
asS'SpaceCenter/Administration/Facility/Building'
p1763
(lp1764
g1749
ag1750
ag1751
asS'SpaceCenter/TrackingStation/Facility/dish_array/dish_east'
p1765
(lp1766
g1749
ag1750
ag1751
asS'SpaceCenter/VehicleAssemblyBuilding/Facility/Tank'
p1767
(lp1768
g1749
ag1750
ag1751
asS'52b4ca35971241c29bc7a327a10b4e65'
p1769
(lp1770
g1745
ag1746
ag1760
ag1749
ag1750
ag1751
asS'4bef8b23e87c4ea8902c725fc12f4fed'
p1771
(lp1772
g1745
ag1746
ag1760
ag1749
ag1750
ag1751
asS'1367ac91c4f64aad9c6256df21793d2e'
p1773
(lp1774
sS'Dilin Kerman'
p1775
(lp1776
g1746
ag1750
asS'SpaceCenter/LaunchPad/Facility/LaunchPadMedium/ksp_pad_waterTower'
p1777
(lp1778
g1749
ag1750
ag1751
asS'SpaceCenter/SpaceplaneHangar/Facility/mainBuilding'
p1779
(lp1780
g1749
ag1750
ag1751
asS'472146fcf45b490e8bafe4b750581fec'
p1781
(lp1782
g1745
ag1746
ag1760
ag1749
ag1750
ag1751
asS'SpaceCenter/TrackingStation/Facility/OuterDish'
p1783
(lp1784
g1749
ag1750
ag1751
asS'SpaceCenter/Runway/Facility/model_runway_new_v43/runway_light_NW'
p1785
(lp1786
g1749
ag1750
ag1751
asS'SpaceCenter/TrackingStation/Facility/dish_array/dish_south'
p1787
(lp1788
g1749
ag1750
ag1751
asS'3e84ad55c8004a0c9dd7eb4faa238c5f'
p1789
(lp1790
g1745
ag1746
ag1760
ag1749
ag1750
ag1751
asS'SpaceCenter/VehicleAssemblyBuilding/Facility/mainBuilding'
p1791
(lp1792
g1749
ag1750
ag1751
asS'SpaceCenter/MissionControl/Facility/building'
p1793
(lp1794
g1749
ag1750
ag1751
asS'SpaceCenter/ResearchAndDevelopment/Facility/SideLab'
p1795
(lp1796
g1749
ag1750
ag1751
asS'SpaceCenter/VehicleAssemblyBuilding/Facility/PodMemorial'
p1797
(lp1798
g1749
ag1750
ag1751
asS'Aldrie Kerman'
p1799
(lp1800
g1751
asS'SpaceCenter/Runway/Facility/model_runway_new_v43/runway_light_NE'
p1801
(lp1802
g1749
ag1750
ag1751
asS'SpaceCenter/AstronautComplex/Facility/mainBuilding'
p1803
(lp1804
g1749
ag1750
ag1751
asS'1aa3d06dd242477bb3ebb9516a9043fb'
p1805
(lp1806
g1751
asS'Jebediah Kerman'
p1807
(lp1808
g1745
ag1746
asS'SpaceCenter/MissionControl/Facility/mainBuilding'
p1809
(lp1810
g1749
ag1750
ag1751
asS'Valentina Kerman'
p1811
(lp1812
g1745
ag1746
asS'Kathvy Kerman'
p1813
(lp1814
g1746
ag1750
asS'Madcine Kerman'
p1815
(lp1816
g1746
ag1750
asS'7827c616f289427fbaba6d8388654544'
p1817
(lp1818
g1745
ag1746
ag1760
ag1749
ag1750
ag1751
asS'SpaceCenter/LaunchPad/Facility/LaunchPadMedium/ksp_pad_cylTank'
p1819
(lp1820
g1749
ag1750
ag1751
asS'SpaceCenter/ResearchAndDevelopment/Facility/mainBuilding'
p1821
(lp1822
g1749
ag1750
ag1751
asS'SpaceCenter/ResearchAndDevelopment/Facility/CornerLab'
p1823
(lp1824
g1749
ag1750
ag1751
asS'SpaceCenter/ResearchAndDevelopment/Facility/ksp_pad_cylTank'
p1825
(lp1826
g1749
ag1750
ag1751
asS'31c439fdb9cd4adbaeb365c3d1f9fee0'
p1827
(lp1828
g1745
ag1746
ag1760
ag1749
ag1750
ag1751
asS'SpaceCenter/ResearchAndDevelopment/Facility/Observatory'
p1829
(lp1830
g1749
ag1750
ag1751
asS'Dunbur Kerman'
p1831
(lp1832
g1746
ag1750
asS'SpaceCenter/VehicleAssemblyBuilding/Facility/ksp_pad_cylTank'
p1833
(lp1834
g1749
ag1750
ag1751
asS'SpaceCenter/SpaceplaneHangar/Facility/ksp_pad_waterTower'
p1835
(lp1836
g1749
ag1750
ag1751
asS'7667eb97db1842f3858bc1d9d4a6bea0'
p1837
(lp1838
g1745
ag1746
ag1760
ag1749
ag1750
ag1751
asS'SpaceCenter/Runway/Facility/model_runway_new_v43/runway_light_SW'
p1839
(lp1840
g1749
ag1750
ag1751
asS'SpaceCenter/ResearchAndDevelopment/Facility/WindTunnel'
p1841
(lp1842
g1749
ag1750
ag1751
asS'SpaceCenter/SpaceplaneHangar/Facility/Building'
p1843
(lp1844
g1749
ag1750
ag1751
asS'SpaceCenter/ResearchAndDevelopment/Facility/SmallLab'
p1845
(lp1846
g1749
ag1750
ag1751
asS'SpaceCenter/AstronautComplex/Facility/building'
p1847
(lp1848
g1749
ag1750
ag1751
asS'SpaceCenter/Administration/Facility/mainBuilding'
p1849
(lp1850
g1749
ag1750
ag1751
asS'5d2d555fe0bf4fdaa02ee8289462491c'
p1851
(lp1852
g1745
ag1746
ag1760
ag1749
ag1750
ag1751
asS'SpaceCenter/Runway/Facility/model_runway_new_v43/runway_light_SE'
p1853
(lp1854
g1749
ag1750
ag1751
asS'SpaceCenter/Runway/Facility/Section3'
p1855
(lp1856
g1749
ag1750
ag1751
asS'9d539250d7334504be974aa8b35b5b25'
p1857
(lp1858
g1745
ag1746
ag1760
ag1749
ag1750
ag1751
asS'SpaceCenter/TrackingStation/Facility/dish_array/dish_north'
p1859
(lp1860
g1749
ag1750
ag1751
asS'SpaceCenter/SpaceplaneHangar/Facility/Tank'
p1861
(lp1862
g1749
ag1750
ag1751
asS'SpaceCenter/ResearchAndDevelopment/Facility/ForeverAlone'
p1863
(lp1864
g1749
ag1750
ag1751
asS'Tamlee Kerman'
p1865
(lp1866
g1760
ag1750
asS'SpaceCenter/Runway/Facility/End09'
p1867
(lp1868
g1749
ag1750
ag1751
asS'69ae5d9ac3314f92bb5ce52212bad58f'
p1869
(lp1870
g1745
ag1746
ag1760
ag1749
ag1750
ag1751
asS'SpaceCenter/LaunchPad/Facility/LaunchPadMedium/KSCFlagPoleLaunchPad'
p1871
(lp1872
g1749
ag1750
ag1751
asS'SpaceCenter/LaunchPad/Facility/Flag'
p1873
(lp1874
g1749
ag1750
ag1751
asS'dcf5fdadbc964a05b4c59c6db2d8bc0f'
p1875
(lp1876
g1745
ag1746
ag1760
ag1749
ag1750
ag1751
asS'SpaceCenter/SpaceplaneHangar/Facility/ksp_pad_cylTank'
p1877
(lp1878
g1749
ag1750
ag1751
asS'f7afdfa704fe4daab4ae5e0a7a76153b'
p1879
(lp1880
g1745
ag1746
ag1760
ag1749
ag1750
ag1751
asS'SpaceCenter/TrackingStation/Facility/building'
p1881
(lp1882
g1749
ag1750
ag1751
asS'SpaceCenter/Runway/Facility/End27'
p1883
(lp1884
g1749
ag1750
ag1751
asS'SpaceCenter/FlagPole/Facility'
p1885
(lp1886
g1749
ag1750
ag1751
asS'SpaceCenter/TrackingStation/Facility/MainBuilding'
p1887
(lp1888
g1749
ag1750
ag1751
asS'f6c8f15c405e4b76bd01b907fa35d5a6'
p1889
(lp1890
g1745
ag1746
ag1760
ag1749
ag1750
ag1751
asS'SpaceCenter/ResearchAndDevelopment/Facility/CentralBuilding'
p1891
(lp1892
g1749
ag1750
ag1751
asS'Theofred Kerman'
p1893
(lp1894
g1746
ag1750
asS'Bill Kerman'
p1895
(lp1896
g1745
ag1746
asS'SpaceCenter/VehicleAssemblyBuilding/Facility/VAB2'
p1897
(lp1898
g1749
ag1750
ag1751
asS'SpaceCenter/ResearchAndDevelopment/Facility/MainBuilding'
p1899
(lp1900
g1749
ag1750
ag1751
ast.