((lp1
(lp2
S'pid = f7afdfa704fe4daab4ae5e0a7a76153b'
p3
aS'name = Ast. HSJ-227'
p4
aS'type = SpaceObject'
p5
aS'sit = ORBITING'
p6
aS'landed = False'
p7
aS'landedAt ='
p8
aS'splashed = False'
p9
aS'met = 0.02'
p10
aS'lct = 0.02'
p11
aS'lastUT = -1'
p12
aS'root = 0'
p13
aS'lat = -2.8332948794582795'
p14
aS'lon = -178.90697653708727'
p15
aS'alt = 14604996073.172096'
p16
aS'hgt = -1'
p17
aS'nrm = 0,1,0'
p18
aS'rot = -0.298433661,0.402898014,-0.817398846,0.283672005'
p19
aS'CoM = 0,0,0'
p20
aS'stg = 0'
p21
aS'prst = False'
p22
aS'ref = 0'
p23
aS'ctrl = False'
p24
aS'ORBIT'
p25
a(lp26
S'SMA = 15257875219.036039'
p27
aS'ECC = 0.11011022072633558'
p28
aS'INC = 2.8710926902589717'
p29
aS'LPE = 2.063889164170051'
p30
aS'LAN = 261.77805386311434'
p31
aS'MNA = -0.054633148297799056'
p32
aS'EPH = 2043585.7560839844'
p33
aS'REF = 0'
p34
aaS'PART'
p35
a(lp36
S'name = PotatoRoid'
p37
aS'cid = 0'
p38
aS'uid = 559298752'
p39
aS'mid = 559298752'
p40
aS'launchID = 0'
p41
aS'parent = 0'
p42
aS'position = 0,0,0'
p43
aS'rotation = 0,0,0,1'
p44
aS'mirror = 1,1,1'
p45
aS'symMethod = Radial'
p46
aS'istg = 0'
p47
aS'resPri = 0'
p48
aS'dstg = 0'
p49
aS'sqor = 0'
p50
aS'sepI = 0'
p51
aS'sidx = 0'
p52
aS'attm = 0'
p53
aS'srfN = None, -1'
p54
aS'mass = 150'
p55
aS'shielded = False'
p56
aS'temp = -1'
p57
aS'tempExt = 0'
p58
aS'tempExtUnexp = 0'
p59
aS'expt = 0.100000001'
p60
aS'state = 0'
p61
aS'attached = True'
p62
aS'autostrutMode = Off'
p63
aS'rigidAttachment = False'
p64
aS'flag ='
p65
aS'rTrf ='
p66
aS'modCost = 0'
p67
aaS'ACTIONGROUPS'
p68
a(lp69
aS'DISCOVERY'
p70
a(lp71
S'state = 1'
p72
aS'lastObservedTime = 0.02'
p73
aS'lifetime = 586354.71038818359'
p74
aS'refTime = 1728000'
p75
aS'size = 4'
p76
aaS'FLIGHTPLAN'
p77
a(lp78
aS'CTRLSTATE'
p79
a(lp80
aS'VESSELMODULES'
p81
a(lp82
S'FlightIntegrator'
p83
a(lp84
aaa(lp85
S'pid = 6b06b1a98db44bc59efd70e7ec2ae764'
p86
aS'name = Ast. HSJ-227'
p87
aS'type = SpaceObject'
p88
aS'sit = ORBITING'
p89
aS'landed = False'
p90
aS'landedAt ='
p91
aS'splashed = False'
p92
aS'met = 0.02'
p93
aS'lct = 0.02'
p94
aS'lastUT = -1'
p95
aS'root = 0'
p96
aS'lat = -2.8284861759367206'
p97
aS'lon = -178.87259896631022'
p98
aS'alt = 14646112047.121075'
p99
aS'hgt = -1'
p100
aS'nrm = 0,1,0'
p101
aS'rot = -0.298433661,0.402898014,-0.817398846,0.283672005'
p102
aS'CoM = 0,0,0'
p103
aS'stg = 0'
p104
aS'prst = False'
p105
aS'ref = 0'
p106
aS'ctrl = False'
p107
aS'ORBIT'
p108
a(lp109
S'SMA = 15331392271.32233'
p110
aS'ECC = 0.11409465301482517'
p111
aS'INC = 2.8663587290111447'
p112
aS'LPE = 1.7493543709802237'
p113
aS'LAN = 261.79551802482416'
p114
aS'MNA = -0.049866065616564779'
p115
aS'EPH = 2043585.7560839844'
p116
aS'REF = 0'
p117
aaS'PART'
p118
a(lp119
S'name = PotatoRoid'
p120
aS'cid = 0'
p121
aS'uid = 559298752'
p122
aS'mid = 559298752'
p123
aS'launchID = 0'
p124
aS'parent = 0'
p125
aS'position = 0,0,0'
p126
aS'rotation = 0,0,0,1'
p127
aS'mirror = 1,1,1'
p128
aS'symMethod = Radial'
p129
aS'istg = 0'
p130
aS'resPri = 0'
p131
aS'dstg = 0'
p132
aS'sqor = 0'
p133
aS'sepI = 0'
p134
aS'sidx = 0'
p135
aS'attm = 0'
p136
aS'srfN = None, -1'
p137
aS'mass = 150'
p138
aS'shielded = False'
p139
aS'temp = -1'
p140
aS'tempExt = 0'
p141
aS'tempExtUnexp = 0'
p142
aS'expt = 0.100000001'
p143
aS'state = 0'
p144
aS'attached = True'
p145
aS'autostrutMode = Off'
p146
aS'rigidAttachment = False'
p147
aS'flag ='
p148
aS'rTrf ='
p149
aS'modCost = 0'
p150
aaS'ACTIONGROUPS'
p151
a(lp152
aS'DISCOVERY'
p153
a(lp154
S'state = 1'
p155
aS'lastObservedTime = 0.02'
p156
aS'lifetime = 586354.71038818359'
p157
aS'refTime = 1728000'
p158
aS'size = 4'
p159
aaS'FLIGHTPLAN'
p160
a(lp161
aS'CTRLSTATE'
p162
a(lp163
aS'VESSELMODULES'
p164
a(lp165
S'FlightIntegrator'
p166
a(lp167
aaa(lp168
S'pid = dcf5fdadbc964a05b4c59c6db2d8bc0f'
p169
aS'name = Ast. AFV-463'
p170
aS'type = SpaceObject'
p171
aS'sit = ORBITING'
p172
aS'landed = False'
p173
aS'landedAt ='
p174
aS'splashed = False'
p175
aS'met = 36.800844726561827'
p176
aS'lct = 36.800844726561827'
p177
aS'lastUT = -1'
p178
aS'root = 0'
p179
aS'lat = -0.019328793232951256'
p180
aS'lon = -99.328670395753889'
p181
aS'alt = 1359924312148.7866'
p182
aS'hgt = -1'
p183
aS'nrm = 0,1,0'
p184
aS'rot = 0.202546716,-0.530212402,-0.11085251,0.815819442'
p185
aS'CoM = 0,0,0'
p186
aS'stg = 0'
p187
aS'prst = False'
p188
aS'ref = 0'
p189
aS'ctrl = False'
p190
aS'ORBIT'
p191
a(lp192
S'SMA = -9270116438.8941002'
p193
aS'ECC = 147.24104995935696'
p194
aS'INC = 10.887904389802229'
p195
aS'LPE = 4.5828577910267851'
p196
aS'LAN = 260.80248427185705'
p197
aS'MNA = -11.652969466772799'
p198
aS'EPH = 2068018.1179833985'
p199
aS'REF = 0'
p200
aaS'PART'
p201
a(lp202
S'name = PotatoRoid'
p203
aS'cid = 0'
p204
aS'uid = 1307544012'
p205
aS'mid = 1307544012'
p206
aS'launchID = 0'
p207
aS'parent = 0'
p208
aS'position = 0,0,0'
p209
aS'rotation = 0,0,0,1'
p210
aS'mirror = 1,1,1'
p211
aS'symMethod = Radial'
p212
aS'istg = 0'
p213
aS'resPri = 0'
p214
aS'dstg = 0'
p215
aS'sqor = 0'
p216
aS'sepI = 0'
p217
aS'sidx = 0'
p218
aS'attm = 0'
p219
aS'srfN = None, -1'
p220
aS'mass = 150'
p221
aS'shielded = False'
p222
aS'temp = -1'
p223
aS'tempExt = 0'
p224
aS'tempExtUnexp = 0'
p225
aS'expt = 0.100000001'
p226
aS'state = 0'
p227
aS'attached = True'
p228
aS'autostrutMode = Off'
p229
aS'rigidAttachment = False'
p230
aS'flag ='
p231
aS'rTrf ='
p232
aS'modCost = 0'
p233
aaS'ACTIONGROUPS'
p234
a(lp235
aS'DISCOVERY'
p236
a(lp237
S'state = 1'
p238
aS'lastObservedTime = 36.800844726561827'
p239
aS'lifetime = 1425929.2602539063'
p240
aS'refTime = 1728000'
p241
aS'size = 3'
p242
aaS'FLIGHTPLAN'
p243
a(lp244
aS'CTRLSTATE'
p245
a(lp246
aS'VESSELMODULES'
p247
a(lp248
S'FlightIntegrator'
p249
a(lp250
aaa(lp251
S'pid = 3e84ad55c8004a0c9dd7eb4faa238c5f'
p252
aS'name = Ast. HKE-454'
p253
aS'type = SpaceObject'
p254
aS'sit = ORBITING'
p255
aS'landed = False'
p256
aS'landedAt ='
p257
aS'splashed = False'
p258
aS'met = 44.480844726561664'
p259
aS'lct = 44.480844726561664'
p260
aS'lastUT = -1'
p261
aS'root = 0'
p262
aS'lat = -0.02153990477536696'
p263
aS'lon = -67.027434702174773'
p264
aS'alt = 1358973512636.4836'
p265
aS'hgt = -1'
p266
aS'nrm = 0,1,0'
p267
aS'rot = 0.867473304,-0.483732402,0.0376826935,0.109877639'
p268
aS'CoM = 0,0,0'
p269
aS'stg = 0'
p270
aS'prst = False'
p271
aS'ref = 0'
p272
aS'ctrl = False'
p273
aS'ORBIT'
p274
a(lp275
S'SMA = -9176842520.564085'
p276
aS'ECC = 145.38561585599814'
p277
aS'INC = 9.5220001474630376'
p278
aS'LPE = 346.93942118870143'
p279
aS'LAN = 293.13804725388104'
p280
aS'MNA = 33.274665108202669'
p281
aS'EPH = 2894855.479379883'
p282
aS'REF = 0'
p283
aaS'PART'
p284
a(lp285
S'name = PotatoRoid'
p286
aS'cid = 0'
p287
aS'uid = 680087366'
p288
aS'mid = 680087366'
p289
aS'launchID = 0'
p290
aS'parent = 0'
p291
aS'position = 0,0,0'
p292
aS'rotation = 0,0,0,1'
p293
aS'mirror = 1,1,1'
p294
aS'symMethod = Radial'
p295
aS'istg = 0'
p296
aS'resPri = 0'
p297
aS'dstg = 0'
p298
aS'sqor = 0'
p299
aS'sepI = 0'
p300
aS'sidx = 0'
p301
aS'attm = 0'
p302
aS'srfN = None, -1'
p303
aS'mass = 150'
p304
aS'shielded = False'
p305
aS'temp = -1'
p306
aS'tempExt = 0'
p307
aS'tempExtUnexp = 0'
p308
aS'expt = 0.100000001'
p309
aS'state = 0'
p310
aS'attached = True'
p311
aS'autostrutMode = Off'
p312
aS'rigidAttachment = False'
p313
aS'flag ='
p314
aS'rTrf ='
p315
aS'modCost = 0'
p316
aaS'ACTIONGROUPS'
p317
a(lp318
aS'DISCOVERY'
p319
a(lp320
S'state = 1'
p321
aS'lastObservedTime = 44.480844726561664'
p322
aS'lifetime = 537952.79388427734'
p323
aS'refTime = 1728000'
p324
aS'size = 2'
p325
aaS'FLIGHTPLAN'
p326
a(lp327
aS'CTRLSTATE'
p328
a(lp329
aS'VESSELMODULES'
p330
a(lp331
S'FlightIntegrator'
p332
a(lp333
aaa(lp334
S'pid = 31c439fdb9cd4adbaeb365c3d1f9fee0'
p335
aS'name = Ast. XIA-532'
p336
aS'type = SpaceObject'
p337
aS'sit = ORBITING'
p338
aS'landed = False'
p339
aS'landedAt ='
p340
aS'splashed = False'
p341
aS'met = 71.139760742186681'
p342
aS'lct = 71.139760742186681'
p343
aS'lastUT = -1'
p344
aS'root = 0'
p345
aS'lat = -1.1843306173399788'
p346
aS'lon = -169.27650823245412'
p347
aS'alt = 15478707745.096365'
p348
aS'hgt = -1'
p349
aS'nrm = 0,1,0'
p350
aS'rot = 0.457695961,0.334746718,0.6373806,0.521732807'
p351
aS'CoM = 0,0,0'
p352
aS'stg = 0'
p353
aS'prst = False'
p354
aS'ref = 0'
p355
aS'ctrl = False'
p356
aS'ORBIT'
p357
a(lp358
S'SMA = 14951363883.023399'
p359
aS'ECC = 0.086970804869135554'
p360
aS'INC = 1.5765224154219963'
p361
aS'LPE = 359.91861229356101'
p362
aS'LAN = 322.09292620079395'
p363
aS'MNA = 0.0820108428468867'
p364
aS'EPH = 3774847.4703271482'
p365
aS'REF = 0'
p366
aaS'PART'
p367
a(lp368
S'name = PotatoRoid'
p369
aS'cid = 0'
p370
aS'uid = 309627476'
p371
aS'mid = 309627476'
p372
aS'launchID = 0'
p373
aS'parent = 0'
p374
aS'position = 0,0,0'
p375
aS'rotation = 0,0,0,1'
p376
aS'mirror = 1,1,1'
p377
aS'symMethod = Radial'
p378
aS'istg = 0'
p379
aS'resPri = 0'
p380
aS'dstg = 0'
p381
aS'sqor = 0'
p382
aS'sepI = 0'
p383
aS'sidx = 0'
p384
aS'attm = 0'
p385
aS'srfN = None, -1'
p386
aS'mass = 150'
p387
aS'shielded = False'
p388
aS'temp = -1'
p389
aS'tempExt = 0'
p390
aS'tempExtUnexp = 0'
p391
aS'expt = 0.100000001'
p392
aS'state = 0'
p393
aS'attached = True'
p394
aS'autostrutMode = Off'
p395
aS'rigidAttachment = False'
p396
aS'flag ='
p397
aS'rTrf ='
p398
aS'modCost = 0'
p399
aaS'ACTIONGROUPS'
p400
a(lp401
aS'DISCOVERY'
p402
a(lp403
S'state = 1'
p404
aS'lastObservedTime = 71.139760742186681'
p405
aS'lifetime = 972061.63330078125'
p406
aS'refTime = 1728000'
p407
aS'size = 1'
p408
aaS'FLIGHTPLAN'
p409
a(lp410
aS'CTRLSTATE'
p411
a(lp412
aS'VESSELMODULES'
p413
a(lp414
S'FlightIntegrator'
p415
a(lp416
aaa(lp417
S'pid = 9d539250d7334504be974aa8b35b5b25'
p418
aS'name = Ast. WQU-099'
p419
aS'type = SpaceObject'
p420
aS'sit = ORBITING'
p421
aS'landed = False'
p422
aS'landedAt ='
p423
aS'splashed = False'
p424
aS'met = 86.185251464842025'
p425
aS'lct = 86.185251464842025'
p426
aS'lastUT = -1'
p427
aS'root = 0'
p428
aS'lat = 0.031955291176193466'
p429
aS'lon = -171.4997808685095'
p430
aS'alt = 15153122879.966234'
p431
aS'hgt = -1'
p432
aS'nrm = 0,1,0'
p433
aS'rot = 0.583948791,-0.282353312,-0.663531959,0.372834593'
p434
aS'CoM = 0,0,0'
p435
aS'stg = 0'
p436
aS'prst = False'
p437
aS'ref = 0'
p438
aS'ctrl = False'
p439
aS'ORBIT'
p440
a(lp441
S'SMA = 14430640367.168535'
p442
aS'ECC = 0.075380522477338896'
p443
aS'INC = 0.069612299025264363'
p444
aS'LPE = 309.23436952395735'
p445
aS'LAN = 35.897633961145459'
p446
aS'MNA = 0.54493932826099933'
p447
aS'EPH = 5146160.9411108401'
p448
aS'REF = 0'
p449
aaS'PART'
p450
a(lp451
S'name = PotatoRoid'
p452
aS'cid = 0'
p453
aS'uid = 178269452'
p454
aS'mid = 178269452'
p455
aS'launchID = 0'
p456
aS'parent = 0'
p457
aS'position = 0,0,0'
p458
aS'rotation = 0,0,0,1'
p459
aS'mirror = 1,1,1'
p460
aS'symMethod = Radial'
p461
aS'istg = 0'
p462
aS'resPri = 0'
p463
aS'dstg = 0'
p464
aS'sqor = 0'
p465
aS'sepI = 0'
p466
aS'sidx = 0'
p467
aS'attm = 0'
p468
aS'srfN = None, -1'
p469
aS'mass = 150'
p470
aS'shielded = False'
p471
aS'temp = -1'
p472
aS'tempExt = 0'
p473
aS'tempExtUnexp = 0'
p474
aS'expt = 0.100000001'
p475
aS'state = 0'
p476
aS'attached = True'
p477
aS'autostrutMode = Off'
p478
aS'rigidAttachment = False'
p479
aS'flag ='
p480
aS'rTrf ='
p481
aS'modCost = 0'
p482
aaS'ACTIONGROUPS'
p483
a(lp484
aS'DISCOVERY'
p485
a(lp486
S'state = 1'
p487
aS'lastObservedTime = 86.185251464842025'
p488
aS'lifetime = 397845.59326171875'
p489
aS'refTime = 1728000'
p490
aS'size = 1'
p491
aaS'FLIGHTPLAN'
p492
a(lp493
aS'CTRLSTATE'
p494
a(lp495
aS'VESSELMODULES'
p496
a(lp497
S'FlightIntegrator'
p498
a(lp499
aaa(lp500
S'pid = 7667eb97db1842f3858bc1d9d4a6bea0'
p501
aS'name = Ast. PKQ-992'
p502
aS'type = SpaceObject'
p503
aS'sit = ORBITING'
p504
aS'landed = False'
p505
aS'landedAt ='
p506
aS'splashed = False'
p507
aS'met = 97.581306152341796'
p508
aS'lct = 97.581306152341796'
p509
aS'lastUT = -1'
p510
aS'root = 0'
p511
aS'lat = 0.98781119837709797'
p512
aS'lon = -176.28967394608603'
p513
aS'alt = 14118820071.894085'
p514
aS'hgt = -1'
p515
aS'nrm = 0,1,0'
p516
aS'rot = -0.665973067,-0.123813815,0.475614429,0.56119591'
p517
aS'CoM = 0,0,0'
p518
aS'stg = 0'
p519
aS'prst = False'
p520
aS'ref = 0'
p521
aS'ctrl = False'
p522
aS'ORBIT'
p523
a(lp524
S'SMA = 14087790131.436773'
p525
aS'ECC = 0.032341759186026414'
p526
aS'INC = 1.7252388665796188'
p527
aS'LPE = 166.30006923245384'
p528
aS'LAN = 148.8704959598403'
p529
aS'MNA = 0.12785424272855533'
p530
aS'EPH = 3662167.3689038088'
p531
aS'REF = 0'
p532
aaS'PART'
p533
a(lp534
S'name = PotatoRoid'
p535
aS'cid = 0'
p536
aS'uid = 572945027'
p537
aS'mid = 572945027'
p538
aS'launchID = 0'
p539
aS'parent = 0'
p540
aS'position = 0,0,0'
p541
aS'rotation = 0,0,0,1'
p542
aS'mirror = 1,1,1'
p543
aS'symMethod = Radial'
p544
aS'istg = 0'
p545
aS'resPri = 0'
p546
aS'dstg = 0'
p547
aS'sqor = 0'
p548
aS'sepI = 0'
p549
aS'sidx = 0'
p550
aS'attm = 0'
p551
aS'srfN = None, -1'
p552
aS'mass = 150'
p553
aS'shielded = False'
p554
aS'temp = -1'
p555
aS'tempExt = 0'
p556
aS'tempExtUnexp = 0'
p557
aS'expt = 0.100000001'
p558
aS'state = 0'
p559
aS'attached = True'
p560
aS'autostrutMode = Off'
p561
aS'rigidAttachment = False'
p562
aS'flag ='
p563
aS'rTrf ='
p564
aS'modCost = 0'
p565
aaS'ACTIONGROUPS'
p566
a(lp567
aS'DISCOVERY'
p568
a(lp569
S'state = 1'
p570
aS'lastObservedTime = 97.581306152341796'
p571
aS'lifetime = 1306165.6219482422'
p572
aS'refTime = 1728000'
p573
aS'size = 3'
p574
aaS'FLIGHTPLAN'
p575
a(lp576
aS'CTRLSTATE'
p577
a(lp578
aS'VESSELMODULES'
p579
a(lp580
S'FlightIntegrator'
p581
a(lp582
aaa(lp583
S'pid = 1444fe1489ed4c369592a76e36df74ae'
p584
aS'name = KenKato Debris'
p585
aS'type = Debris'
p586
aS'sit = SUB_ORBITAL'
p587
aS'landed = False'
p588
aS'landedAt ='
p589
aS'splashed = False'
p590
aS'met = 346.42829101562381'
p591
aS'lct = 99.461040039060322'
p592
aS'lastUT = 445.88933105468413'
p593
aS'root = 0'
p594
aS'lat = -0.1453108245556464'
p595
aS'lon = -73.622142533659215'
p596
aS'alt = 322190.64242241555'
p597
aS'hgt = -1'
p598
aS'nrm = -0.245595038,0.969372451,0.00047326088'
p599
aS'rot = -0.691912711,-0.147507578,-0.152524799,0.690097451'
p600
aS'CoM = 0.000138998032,-8.23290825,4.29153442E-06'
p601
aS'stg = 2'
p602
aS'prst = False'
p603
aS'ref = 0'
p604
aS'ctrl = False'
p605
aS'cPch = 0'
p606
aS'cHdg = 0'
p607
aS'cMod = -1'
p608
aS'ORBIT'
p609
a(lp610
S'SMA = 465155.80099402228'
p611
aS'ECC = 0.98445129623228389'
p612
aS'INC = 0.38846346697962597'
p613
aS'LPE = 21.64908831176102'
p614
aS'LAN = 181.86056846739703'
p615
aS'MNA = 1.2473307784140655'
p616
aS'EPH = 105.14911621093421'
p617
aS'REF = 1'
p618
aaS'PART'
p619
a(lp620
S'name = stackDecoupler'
p621
aS'cid = 4294526350'
p622
aS'uid = 2861915398'
p623
aS'mid = 1680253655'
p624
aS'launchID = 1'
p625
aS'parent = 0'
p626
aS'position = 0,0,0'
p627
aS'rotation = 0,0,0,1'
p628
aS'mirror = 1,1,1'
p629
aS'symMethod = Radial'
p630
aS'istg = 1'
p631
aS'resPri = 0'
p632
aS'dstg = 1'
p633
aS'sqor = 1'
p634
aS'sepI = 1'
p635
aS'sidx = 0'
p636
aS'attm = 0'
p637
aS'srfN = , -1'
p638
aS'attN = bottom, 1'
p639
aS'attN = top, -1'
p640
aS'mass = 0.0500000007'
p641
aS'shielded = False'
p642
aS'temp = 414.59760025884759'
p643
aS'tempExt = 384.83521168251787'
p644
aS'tempExtUnexp = 4'
p645
aS'expt = 0.5'
p646
aS'state = 1'
p647
aS'attached = False'
p648
aS'autostrutMode = Off'
p649
aS'rigidAttachment = False'
p650
aS'flag = Squad/Agencies/StrutCo'
p651
aS'rTrf = stackDecoupler'
p652
aS'modCost = 0'
p653
aS'EVENTS'
p654
a(lp655
aS'ACTIONS'
p656
a(lp657
aS'PARTDATA'
p658
a(lp659
aS'MODULE'
p660
a(lp661
S'name = ModuleDecouple'
p662
aS'isEnabled = True'
p663
aS'ejectionForcePercent = 100'
p664
aS'isDecoupled = True'
p665
aS'stagingEnabled = True'
p666
aS'EVENTS'
p667
a(lp668
aS'ACTIONS'
p669
a(lp670
S'DecoupleAction'
p671
a(lp672
S'actionGroup = None'
p673
aaaS'UPGRADESAPPLIED'
p674
a(lp675
aaS'MODULE'
p676
a(lp677
S'name = ModuleToggleCrossfeed'
p678
aS'isEnabled = True'
p679
aS'crossfeedStatus = False'
p680
aS'stagingEnabled = True'
p681
aS'EVENTS'
p682
a(lp683
aS'ACTIONS'
p684
a(lp685
S'ToggleAction'
p686
a(lp687
S'actionGroup = None'
p688
aaS'EnableAction'
p689
a(lp690
S'actionGroup = None'
p691
aaS'DisableAction'
p692
a(lp693
S'actionGroup = None'
p694
aaaS'UPGRADESAPPLIED'
p695
a(lp696
aaS'MODULE'
p697
a(lp698
S'name = ModuleTestSubject'
p699
aS'isEnabled = True'
p700
aS'stagingEnabled = True'
p701
aS'EVENTS'
p702
a(lp703
aS'ACTIONS'
p704
a(lp705
aS'UPGRADESAPPLIED'
p706
a(lp707
aaaS'PART'
p708
a(lp709
S'name = advSasModule'
p710
aS'cid = 4294506036'
p711
aS'uid = 3645995020'
p712
aS'mid = 1680253655'
p713
aS'launchID = 1'
p714
aS'parent = 0'
p715
aS'position = 0,-0.33202171325683594,0'
p716
aS'rotation = 0,0,0,1'
p717
aS'mirror = 1,1,1'
p718
aS'symMethod = Radial'
p719
aS'istg = 1'
p720
aS'resPri = 0'
p721
aS'dstg = 2'
p722
aS'sqor = -1'
p723
aS'sepI = 1'
p724
aS'sidx = -1'
p725
aS'attm = 0'
p726
aS'srfN = , -1'
p727
aS'attN = top, 0'
p728
aS'attN = bottom, 2'
p729
aS'mass = 0.100000001'
p730
aS'shielded = False'
p731
aS'temp = 415.45234272707057'
p732
aS'tempExt = 388.10427388299297'
p733
aS'tempExtUnexp = 4'
p734
aS'expt = 0.5'
p735
aS'state = 1'
p736
aS'attached = True'
p737
aS'autostrutMode = Off'
p738
aS'rigidAttachment = False'
p739
aS'flag = Squad/Agencies/StrutCo'
p740
aS'rTrf = advSasModule'
p741
aS'modCost = 0'
p742
aS'EVENTS'
p743
a(lp744
aS'ACTIONS'
p745
a(lp746
aS'PARTDATA'
p747
a(lp748
aS'MODULE'
p749
a(lp750
S'name = ModuleReactionWheel'
p751
aS'isEnabled = True'
p752
aS'actuatorModeCycle = 0'
p753
aS'authorityLimiter = 100'
p754
aS'stateString = Idle'
p755
aS'stagingEnabled = True'
p756
aS'WheelState = Active'
p757
aS'EVENTS'
p758
a(lp759
aS'ACTIONS'
p760
a(lp761
S'CycleAction'
p762
a(lp763
S'actionGroup = None'
p764
aaS'Activate'
p765
a(lp766
S'actionGroup = None'
p767
aaS'Deactivate'
p768
a(lp769
S'actionGroup = None'
p770
aaS'Toggle'
p771
a(lp772
S'actionGroup = None'
p773
aaaS'UPGRADESAPPLIED'
p774
a(lp775
aaaS'PART'
p776
a(lp777
S'name = MassiveBooster'
p778
aS'cid = 4294519944'
p779
aS'uid = 2779915711'
p780
aS'mid = 1680253655'
p781
aS'launchID = 1'
p782
aS'parent = 1'
p783
aS'position = 0,-7.9602069854736328,0'
p784
aS'rotation = 0,0,0,1'
p785
aS'mirror = 1,1,1'
p786
aS'symMethod = Radial'
p787
aS'istg = 2'
p788
aS'resPri = 0'
p789
aS'dstg = 2'
p790
aS'sqor = 2'
p791
aS'sepI = 1'
p792
aS'sidx = 0'
p793
aS'attm = 0'
p794
aS'srfN = srfAttach, -1'
p795
aS'attN = top, 1'
p796
aS'attN = bottom, -1'
p797
aS'mass = 4.5'
p798
aS'shielded = False'
p799
aS'temp = 416.80031747958492'
p800
aS'tempExt = 393.17922167457249'
p801
aS'tempExtUnexp = 4'
p802
aS'expt = 0.5'
p803
aS'state = 1'
p804
aS'attached = True'
p805
aS'autostrutMode = Off'
p806
aS'rigidAttachment = False'
p807
aS'flag = Squad/Agencies/StrutCo'
p808
aS'rTrf = MassiveBooster'
p809
aS'modCost = 0'
p810
aS'EVENTS'
p811
a(lp812
aS'ACTIONS'
p813
a(lp814
aS'PARTDATA'
p815
a(lp816
aS'MODULE'
p817
a(lp818
S'name = ModuleEnginesFX'
p819
aS'isEnabled = True'
p820
aS'staged = True'
p821
aS'flameout = True'
p822
aS'EngineIgnited = True'
p823
aS'engineShutdown = False'
p824
aS'currentThrottle = 0'
p825
aS'thrustPercentage = 100'
p826
aS'manuallyOverridden = False'
p827
aS'stagingEnabled = True'
p828
aS'EVENTS'
p829
a(lp830
aS'ACTIONS'
p831
a(lp832
S'OnAction'
p833
a(lp834
S'actionGroup = None'
p835
aaS'ShutdownAction'
p836
a(lp837
S'actionGroup = None'
p838
aaS'ActivateAction'
p839
a(lp840
S'actionGroup = None'
p841
aaaS'UPGRADESAPPLIED'
p842
a(lp843
aaS'MODULE'
p844
a(lp845
S'name = FXModuleAnimateThrottle'
p846
aS'isEnabled = True'
p847
aS'animState = 0'
p848
aS'stagingEnabled = True'
p849
aS'EVENTS'
p850
a(lp851
aS'ACTIONS'
p852
a(lp853
aS'UPGRADESAPPLIED'
p854
a(lp855
aaS'MODULE'
p856
a(lp857
S'name = ModuleTestSubject'
p858
aS'isEnabled = True'
p859
aS'stagingEnabled = True'
p860
aS'EVENTS'
p861
a(lp862
aS'ACTIONS'
p863
a(lp864
aS'UPGRADESAPPLIED'
p865
a(lp866
aaS'MODULE'
p867
a(lp868
S'name = ModuleSurfaceFX'
p869
aS'isEnabled = True'
p870
aS'stagingEnabled = True'
p871
aS'EVENTS'
p872
a(lp873
aS'ACTIONS'
p874
a(lp875
aS'UPGRADESAPPLIED'
p876
a(lp877
aaS'RESOURCE'
p878
a(lp879
S'name = SolidFuel'
p880
aS'amount = 0'
p881
aS'maxAmount = 2600'
p882
aS'flowState = True'
p883
aS'isTweakable = True'
p884
aS'hideFlow = False'
p885
aS'isVisible = True'
p886
aS'flowMode = Both'
p887
aaaS'PART'
p888
a(lp889
S'name = R8winglet'
p890
aS'cid = 4294510764'
p891
aS'uid = 1841206327'
p892
aS'mid = 1680253655'
p893
aS'launchID = 1'
p894
aS'parent = 2'
p895
aS'position = -8.3819031715393066E-08,-14.107738494873047,-1.1323564052581787'
p896
aS'rotation = 0,0.707106769,0,-0.707106888'
p897
aS'mirror = 1,1,1'
p898
aS'symMethod = Radial'
p899
aS'istg = 2'
p900
aS'resPri = 0'
p901
aS'dstg = 2'
p902
aS'sqor = -1'
p903
aS'sepI = 1'
p904
aS'sidx = -1'
p905
aS'attm = 1'
p906
aS'sym = 4'
p907
aS'sym = 5'
p908
aS'sym = 6'
p909
aS'srfN = srfAttach, 2'
p910
aS'mass = 0.100000001'
p911
aS'shielded = False'
p912
aS'temp = 443.33587982876873'
p913
aS'tempExt = 376.63850795170282'
p914
aS'tempExtUnexp = 4'
p915
aS'expt = 0.100000001'
p916
aS'state = 1'
p917
aS'attached = True'
p918
aS'autostrutMode = Off'
p919
aS'rigidAttachment = False'
p920
aS'flag = Squad/Agencies/StrutCo'
p921
aS'rTrf = R8winglet'
p922
aS'modCost = 0'
p923
aS'EVENTS'
p924
a(lp925
aS'ACTIONS'
p926
a(lp927
aS'PARTDATA'
p928
a(lp929
aS'MODULE'
p930
a(lp931
S'name = ModuleControlSurface'
p932
aS'isEnabled = True'
p933
aS'mirrorDeploy = False'
p934
aS'usesMirrorDeploy = True'
p935
aS'ignorePitch = False'
p936
aS'ignoreYaw = False'
p937
aS'ignoreRoll = False'
p938
aS'deploy = False'
p939
aS'deployInvert = False'
p940
aS'partDeployInvert = False'
p941
aS'authorityLimiter = 100'
p942
aS'stagingEnabled = True'
p943
aS'EVENTS'
p944
a(lp945
aS'ACTIONS'
p946
a(lp947
S'ActionToggle'
p948
a(lp949
S'actionGroup = None'
p950
aaS'ActionExtend'
p951
a(lp952
S'actionGroup = None'
p953
aaS'ActionRetract'
p954
a(lp955
S'actionGroup = None'
p956
aaaS'UPGRADESAPPLIED'
p957
a(lp958
aaaS'PART'
p959
a(lp960
S'name = R8winglet'
p961
aS'cid = 4294510544'
p962
aS'uid = 3611971504'
p963
aS'mid = 1680253655'
p964
aS'launchID = 1'
p965
aS'parent = 2'
p966
aS'position = -1.1323562860488892,-14.107738494873047,1.4901161193847656E-08'
p967
aS'rotation = 0,-8.42936956E-08,0,-1'
p968
aS'mirror = 1,1,1'
p969
aS'symMethod = Radial'
p970
aS'istg = 2'
p971
aS'resPri = 0'
p972
aS'dstg = 2'
p973
aS'sqor = -1'
p974
aS'sepI = 1'
p975
aS'sidx = -1'
p976
aS'attm = 1'
p977
aS'sym = 3'
p978
aS'sym = 5'
p979
aS'sym = 6'
p980
aS'srfN = srfAttach, 2'
p981
aS'mass = 0.100000001'
p982
aS'shielded = False'
p983
aS'temp = 439.11718879247746'
p984
aS'tempExt = 374.46241029045842'
p985
aS'tempExtUnexp = 4'
p986
aS'expt = 0.100000001'
p987
aS'state = 1'
p988
aS'attached = True'
p989
aS'autostrutMode = Off'
p990
aS'rigidAttachment = False'
p991
aS'flag = Squad/Agencies/StrutCo'
p992
aS'rTrf = R8winglet'
p993
aS'modCost = 0'
p994
aS'EVENTS'
p995
a(lp996
aS'ACTIONS'
p997
a(lp998
aS'PARTDATA'
p999
a(lp1000
aS'MODULE'
p1001
a(lp1002
S'name = ModuleControlSurface'
p1003
aS'isEnabled = True'
p1004
aS'mirrorDeploy = False'
p1005
aS'usesMirrorDeploy = True'
p1006
aS'ignorePitch = False'
p1007
aS'ignoreYaw = False'
p1008
aS'ignoreRoll = False'
p1009
aS'deploy = False'
p1010
aS'deployInvert = False'
p1011
aS'partDeployInvert = False'
p1012
aS'authorityLimiter = 100'
p1013
aS'stagingEnabled = True'
p1014
aS'EVENTS'
p1015
a(lp1016
aS'ACTIONS'
p1017
a(lp1018
S'ActionToggle'
p1019
a(lp1020
S'actionGroup = None'
p1021
aaS'ActionExtend'
p1022
a(lp1023
S'actionGroup = None'
p1024
aaS'ActionRetract'
p1025
a(lp1026
S'actionGroup = None'
p1027
aaaS'UPGRADESAPPLIED'
p1028
a(lp1029
aaaS'PART'
p1030
a(lp1031
S'name = R8winglet'
p1032
aS'cid = 4294510500'
p1033
aS'uid = 2424856678'
p1034
aS'mid = 1680253655'
p1035
aS'launchID = 1'
p1036
aS'parent = 2'
p1037
aS'position = 1.8253922462463379E-07,-14.107738494873047,1.1323564052581787'
p1038
aS'rotation = 0,-0.707106948,0,-0.707106709'
p1039
aS'mirror = 1,1,1'
p1040
aS'symMethod = Radial'
p1041
aS'istg = 2'
p1042
aS'resPri = 0'
p1043
aS'dstg = 2'
p1044
aS'sqor = -1'
p1045
aS'sepI = 1'
p1046
aS'sidx = -1'
p1047
aS'attm = 1'
p1048
aS'sym = 3'
p1049
aS'sym = 4'
p1050
aS'sym = 6'
p1051
aS'srfN = srfAttach, 2'
p1052
aS'mass = 0.100000001'
p1053
aS'shielded = False'
p1054
aS'temp = 445.01749833400186'
p1055
aS'tempExt = 377.26702569559984'
p1056
aS'tempExtUnexp = 4'
p1057
aS'expt = 0.100000001'
p1058
aS'state = 1'
p1059
aS'attached = True'
p1060
aS'autostrutMode = Off'
p1061
aS'rigidAttachment = False'
p1062
aS'flag = Squad/Agencies/StrutCo'
p1063
aS'rTrf = R8winglet'
p1064
aS'modCost = 0'
p1065
aS'EVENTS'
p1066
a(lp1067
aS'ACTIONS'
p1068
a(lp1069
aS'PARTDATA'
p1070
a(lp1071
aS'MODULE'
p1072
a(lp1073
S'name = ModuleControlSurface'
p1074
aS'isEnabled = True'
p1075
aS'mirrorDeploy = False'
p1076
aS'usesMirrorDeploy = True'
p1077
aS'ignorePitch = False'
p1078
aS'ignoreYaw = False'
p1079
aS'ignoreRoll = False'
p1080
aS'deploy = False'
p1081
aS'deployInvert = False'
p1082
aS'partDeployInvert = False'
p1083
aS'authorityLimiter = 100'
p1084
aS'stagingEnabled = True'
p1085
aS'EVENTS'
p1086
a(lp1087
aS'ACTIONS'
p1088
a(lp1089
S'ActionToggle'
p1090
a(lp1091
S'actionGroup = None'
p1092
aaS'ActionExtend'
p1093
a(lp1094
S'actionGroup = None'
p1095
aaS'ActionRetract'
p1096
a(lp1097
S'actionGroup = None'
p1098
aaaS'UPGRADESAPPLIED'
p1099
a(lp1100
aaaS'PART'
p1101
a(lp1102
S'name = R8winglet'
p1103
aS'cid = 4294510456'
p1104
aS'uid = 784285202'
p1105
aS'mid = 1680253655'
p1106
aS'launchID = 1'
p1107
aS'parent = 2'
p1108
aS'position = 1.1323562860488892,-14.107738494873047,-1.4901161193847656E-07'
p1109
aS'rotation = 0,-1,0,8.42936956E-08'
p1110
aS'mirror = 1,1,1'
p1111
aS'symMethod = Radial'
p1112
aS'istg = 2'
p1113
aS'resPri = 0'
p1114
aS'dstg = 2'
p1115
aS'sqor = -1'
p1116
aS'sepI = 1'
p1117
aS'sidx = -1'
p1118
aS'attm = 1'
p1119
aS'sym = 3'
p1120
aS'sym = 4'
p1121
aS'sym = 5'
p1122
aS'srfN = srfAttach, 2'
p1123
aS'mass = 0.100000001'
p1124
aS'shielded = False'
p1125
aS'temp = 438.35191871125971'
p1126
aS'tempExt = 374.11040428676648'
p1127
aS'tempExtUnexp = 4'
p1128
aS'expt = 0.100000001'
p1129
aS'state = 1'
p1130
aS'attached = True'
p1131
aS'autostrutMode = Off'
p1132
aS'rigidAttachment = False'
p1133
aS'flag = Squad/Agencies/StrutCo'
p1134
aS'rTrf = R8winglet'
p1135
aS'modCost = 0'
p1136
aS'EVENTS'
p1137
a(lp1138
aS'ACTIONS'
p1139
a(lp1140
aS'PARTDATA'
p1141
a(lp1142
aS'MODULE'
p1143
a(lp1144
S'name = ModuleControlSurface'
p1145
aS'isEnabled = True'
p1146
aS'mirrorDeploy = False'
p1147
aS'usesMirrorDeploy = True'
p1148
aS'ignorePitch = False'
p1149
aS'ignoreYaw = False'
p1150
aS'ignoreRoll = False'
p1151
aS'deploy = False'
p1152
aS'deployInvert = False'
p1153
aS'partDeployInvert = False'
p1154
aS'authorityLimiter = 100'
p1155
aS'stagingEnabled = True'
p1156
aS'EVENTS'
p1157
a(lp1158
aS'ACTIONS'
p1159
a(lp1160
S'ActionToggle'
p1161
a(lp1162
S'actionGroup = None'
p1163
aaS'ActionExtend'
p1164
a(lp1165
S'actionGroup = None'
p1166
aaS'ActionRetract'
p1167
a(lp1168
S'actionGroup = None'
p1169
aaaS'UPGRADESAPPLIED'
p1170
a(lp1171
aaaS'ACTIONGROUPS'
p1172
a(lp1173
S'Stage = True, 11.8999999999998'
p1174
aS'Gear = False, 0'
p1175
aS'Light = False, 0'
p1176
aS'RCS = False, 0'
p1177
aS'SAS = True, 11.2199999999999'
p1178
aS'Brakes = False, 0'
p1179
aS'Abort = False, 0'
p1180
aS'Custom01 = False, 0'
p1181
aS'Custom02 = False, 0'
p1182
aS'Custom03 = False, 0'
p1183
aS'Custom04 = False, 0'
p1184
aS'Custom05 = False, 0'
p1185
aS'Custom06 = False, 0'
p1186
aS'Custom07 = False, 0'
p1187
aS'Custom08 = False, 0'
p1188
aS'Custom09 = False, 0'
p1189
aS'Custom10 = False, 0'
p1190
aaS'DISCOVERY'
p1191
a(lp1192
S'state = -1'
p1193
aS'lastObservedTime = 0'
p1194
aS'lifetime = Infinity'
p1195
aS'refTime = Infinity'
p1196
aS'size = 2'
p1197
aaS'FLIGHTPLAN'
p1198
a(lp1199
aS'CTRLSTATE'
p1200
a(lp1201
S'pitch = 0'
p1202
aS'yaw = 0'
p1203
aS'roll = 0'
p1204
aS'trimPitch = 0'
p1205
aS'trimYaw = 0.474548608'
p1206
aS'trimRoll = 0'
p1207
aS'mainThrottle = 0'
p1208
aaS'VESSELMODULES'
p1209
a(lp1210
S'FlightIntegrator'
p1211
a(lp1212
aaa(lp1213
S'pid = f6c8f15c405e4b76bd01b907fa35d5a6'
p1214
aS'name = Ast. KAC-057'
p1215
aS'type = SpaceObject'
p1216
aS'sit = ORBITING'
p1217
aS'landed = False'
p1218
aS'landedAt ='
p1219
aS'splashed = False'
p1220
aS'met = 489.10760253904834'
p1221
aS'lct = 489.10760253904834'
p1222
aS'lastUT = -1'
p1223
aS'root = 0'
p1224
aS'lat = -1.552595707431091'
p1225
aS'lon = 178.76030826911051'
p1226
aS'alt = 13621242247.253592'
p1227
aS'hgt = -1'
p1228
aS'nrm = 0,1,0'
p1229
aS'rot = 0.212658256,0.73727721,-0.212613955,0.604974449'
p1230
aS'CoM = 0,0,0'
p1231
aS'stg = 0'
p1232
aS'prst = False'
p1233
aS'ref = 0'
p1234
aS'ctrl = False'
p1235
aS'ORBIT'
p1236
a(lp1237
S'SMA = 14327552836.175472'
p1238
aS'ECC = 0.051224863160978483'
p1239
aS'INC = 1.7714672435547949'
p1240
aS'LPE = 353.85640022342233'
p1241
aS'LAN = 240.37678756920775'
p1242
aS'MNA = 0.064828067417102869'
p1243
aS'EPH = 1495605.8678564453'
p1244
aS'REF = 0'
p1245
aaS'PART'
p1246
a(lp1247
S'name = PotatoRoid'
p1248
aS'cid = 0'
p1249
aS'uid = 1181685083'
p1250
aS'mid = 1181685083'
p1251
aS'launchID = 0'
p1252
aS'parent = 0'
p1253
aS'position = 0,0,0'
p1254
aS'rotation = 0,0,0,1'
p1255
aS'mirror = 1,1,1'
p1256
aS'symMethod = Radial'
p1257
aS'istg = 0'
p1258
aS'resPri = 0'
p1259
aS'dstg = 0'
p1260
aS'sqor = 0'
p1261
aS'sepI = 0'
p1262
aS'sidx = 0'
p1263
aS'attm = 0'
p1264
aS'srfN = None, -1'
p1265
aS'mass = 150'
p1266
aS'shielded = False'
p1267
aS'temp = -1'
p1268
aS'tempExt = 0'
p1269
aS'tempExtUnexp = 0'
p1270
aS'expt = 0.100000001'
p1271
aS'state = 0'
p1272
aS'attached = True'
p1273
aS'autostrutMode = Off'
p1274
aS'rigidAttachment = False'
p1275
aS'flag ='
p1276
aS'rTrf ='
p1277
aS'modCost = 0'
p1278
aaS'ACTIONGROUPS'
p1279
a(lp1280
aS'DISCOVERY'
p1281
a(lp1282
S'state = 1'
p1283
aS'lastObservedTime = 489.10760253904834'
p1284
aS'lifetime = 802542.78259277344'
p1285
aS'refTime = 1728000'
p1286
aS'size = 1'
p1287
aaS'FLIGHTPLAN'
p1288
a(lp1289
aS'CTRLSTATE'
p1290
a(lp1291
aS'VESSELMODULES'
p1292
a(lp1293
S'FlightIntegrator'
p1294
a(lp1295
aaa(lp1296
S'pid = 52b4ca35971241c29bc7a327a10b4e65'
p1297
aS'name = Ast. BFV-598'
p1298
aS'type = SpaceObject'
p1299
aS'sit = ORBITING'
p1300
aS'landed = False'
p1301
aS'landedAt ='
p1302
aS'splashed = False'
p1303
aS'met = 24.79999999999956'
p1304
aS'lct = 24.79999999999956'
p1305
aS'lastUT = -1'
p1306
aS'root = 0'
p1307
aS'lat = 0.9410920263638175'
p1308
aS'lon = -165.55550596129612'
p1309
aS'alt = 16911529763.202074'
p1310
aS'hgt = -1'
p1311
aS'nrm = 0,1,0'
p1312
aS'rot = 0.303116769,0.314429134,-0.578063011,0.689273357'
p1313
aS'CoM = 0,0,0'
p1314
aS'stg = 0'
p1315
aS'prst = False'
p1316
aS'ref = 0'
p1317
aS'ctrl = False'
p1318
aS'ORBIT'
p1319
a(lp1320
S'SMA = 15979474675.467216'
p1321
aS'ECC = 0.15228159247069967'
p1322
aS'INC = 1.4725795455694553'
p1323
aS'LPE = 166.46259810215815'
p1324
aS'LAN = 154.74831885737194'
p1325
aS'MNA = 0.19630996939833287'
p1326
aS'EPH = 4005665.3029296873'
p1327
aS'REF = 0'
p1328
aaS'PART'
p1329
a(lp1330
S'name = PotatoRoid'
p1331
aS'cid = 0'
p1332
aS'uid = 912724354'
p1333
aS'mid = 912724354'
p1334
aS'launchID = 0'
p1335
aS'parent = 0'
p1336
aS'position = 0,0,0'
p1337
aS'rotation = 0,0,0,1'
p1338
aS'mirror = 1,1,1'
p1339
aS'symMethod = Radial'
p1340
aS'istg = 0'
p1341
aS'resPri = 0'
p1342
aS'dstg = 0'
p1343
aS'sqor = 0'
p1344
aS'sepI = 0'
p1345
aS'sidx = 0'
p1346
aS'attm = 0'
p1347
aS'srfN = None, -1'
p1348
aS'mass = 150'
p1349
aS'shielded = False'
p1350
aS'temp = -1'
p1351
aS'tempExt = 0'
p1352
aS'tempExtUnexp = 0'
p1353
aS'expt = 0.100000001'
p1354
aS'state = 0'
p1355
aS'attached = True'
p1356
aS'autostrutMode = Off'
p1357
aS'rigidAttachment = False'
p1358
aS'flag ='
p1359
aS'rTrf ='
p1360
aS'modCost = 0'
p1361
aaS'ACTIONGROUPS'
p1362
a(lp1363
aS'DISCOVERY'
p1364
a(lp1365
S'state = 1'
p1366
aS'lastObservedTime = 24.79999999999956'
p1367
aS'lifetime = 1443357.8063964844'
p1368
aS'refTime = 1728000'
p1369
aS'size = 2'
p1370
aaS'FLIGHTPLAN'
p1371
a(lp1372
aS'CTRLSTATE'
p1373
a(lp1374
aS'VESSELMODULES'
p1375
a(lp1376
S'FlightIntegrator'
p1377
a(lp1378
aaa(lp1379
S'pid = 5d2d555fe0bf4fdaa02ee8289462491c'
p1380
aS'name = Ast. VEE-846'
p1381
aS'type = SpaceObject'
p1382
aS'sit = ORBITING'
p1383
aS'landed = False'
p1384
aS'landedAt ='
p1385
aS'splashed = False'
p1386
aS'met = 39.800000000000622'
p1387
aS'lct = 39.800000000000622'
p1388
aS'lastUT = -1'
p1389
aS'root = 0'
p1390
aS'lat = 0.16529408311317564'
p1391
aS'lon = -168.68517858173445'
p1392
aS'alt = 16247994196.070869'
p1393
aS'hgt = -1'
p1394
aS'nrm = 0,1,0'
p1395
aS'rot = -0.0203830432,0.843586206,0.0492590964,0.534340978'
p1396
aS'CoM = 0,0,0'
p1397
aS'stg = 0'
p1398
aS'prst = False'
p1399
aS'ref = 0'
p1400
aS'ctrl = False'
p1401
aS'ORBIT'
p1402
a(lp1403
S'SMA = 15452145016.716743'
p1404
aS'ECC = 0.1258700079961434'
p1405
aS'INC = 0.48519098628110546'
p1406
aS'LPE = 148.7233643216718'
p1407
aS'LAN = 171.43021623957111'
p1408
aS'MNA = 0.27352185146847507'
p1409
aS'EPH = 4104227.6662109373'
p1410
aS'REF = 0'
p1411
aaS'PART'
p1412
a(lp1413
S'name = PotatoRoid'
p1414
aS'cid = 0'
p1415
aS'uid = 1760781180'
p1416
aS'mid = 1760781180'
p1417
aS'launchID = 0'
p1418
aS'parent = 0'
p1419
aS'position = 0,0,0'
p1420
aS'rotation = 0,0,0,1'
p1421
aS'mirror = 1,1,1'
p1422
aS'symMethod = Radial'
p1423
aS'istg = 0'
p1424
aS'resPri = 0'
p1425
aS'dstg = 0'
p1426
aS'sqor = 0'
p1427
aS'sepI = 0'
p1428
aS'sidx = 0'
p1429
aS'attm = 0'
p1430
aS'srfN = None, -1'
p1431
aS'mass = 150'
p1432
aS'shielded = False'
p1433
aS'temp = -1'
p1434
aS'tempExt = 0'
p1435
aS'tempExtUnexp = 0'
p1436
aS'expt = 0.100000001'
p1437
aS'state = 0'
p1438
aS'attached = True'
p1439
aS'autostrutMode = Off'
p1440
aS'rigidAttachment = False'
p1441
aS'flag ='
p1442
aS'rTrf ='
p1443
aS'modCost = 0'
p1444
aaS'ACTIONGROUPS'
p1445
a(lp1446
aS'DISCOVERY'
p1447
a(lp1448
S'state = 1'
p1449
aS'lastObservedTime = 39.800000000000622'
p1450
aS'lifetime = 1108766.6839599609'
p1451
aS'refTime = 1728000'
p1452
aS'size = 2'
p1453
aaS'FLIGHTPLAN'
p1454
a(lp1455
aS'CTRLSTATE'
p1456
a(lp1457
aS'VESSELMODULES'
p1458
a(lp1459
S'FlightIntegrator'
p1460
a(lp1461
aaa(lp1462
S'pid = 4bef8b23e87c4ea8902c725fc12f4fed'
p1463
aS'name = Ast. JQN-498'
p1464
aS'type = SpaceObject'
p1465
aS'sit = ORBITING'
p1466
aS'landed = False'
p1467
aS'landedAt ='
p1468
aS'splashed = False'
p1469
aS'met = 69.820000000003247'
p1470
aS'lct = 69.820000000003247'
p1471
aS'lastUT = -1'
p1472
aS'root = 0'
p1473
aS'lat = -0.10630763741959239'
p1474
aS'lon = -179.37442956131522'
p1475
aS'alt = 13991545120.004999'
p1476
aS'hgt = -1'
p1477
aS'nrm = 0,1,0'
p1478
aS'rot = 0.341969758,-0.607593358,0.534953952,0.477191061'
p1479
aS'CoM = 0,0,0'
p1480
aS'stg = 0'
p1481
aS'prst = False'
p1482
aS'ref = 0'
p1483
aS'ctrl = False'
p1484
aS'ORBIT'
p1485
a(lp1486
S'SMA = 14418576344.601263'
p1487
aS'ECC = 0.055302823635052782'
p1488
aS'INC = 0.10780834299418159'
p1489
aS'LPE = 341.57412476864113'
p1490
aS'LAN = 280.25491810208825'
p1491
aS'MNA = 0.014730383434979325'
p1492
aS'EPH = 2114702.9315722655'
p1493
aS'REF = 0'
p1494
aaS'PART'
p1495
a(lp1496
S'name = PotatoRoid'
p1497
aS'cid = 0'
p1498
aS'uid = 2102239721'
p1499
aS'mid = 2102239721'
p1500
aS'launchID = 0'
p1501
aS'parent = 0'
p1502
aS'position = 0,0,0'
p1503
aS'rotation = 0,0,0,1'
p1504
aS'mirror = 1,1,1'
p1505
aS'symMethod = Radial'
p1506
aS'istg = 0'
p1507
aS'resPri = 0'
p1508
aS'dstg = 0'
p1509
aS'sqor = 0'
p1510
aS'sepI = 0'
p1511
aS'sidx = 0'
p1512
aS'attm = 0'
p1513
aS'srfN = None, -1'
p1514
aS'mass = 150'
p1515
aS'shielded = False'
p1516
aS'temp = -1'
p1517
aS'tempExt = 0'
p1518
aS'tempExtUnexp = 0'
p1519
aS'expt = 0.100000001'
p1520
aS'state = 0'
p1521
aS'attached = True'
p1522
aS'autostrutMode = Off'
p1523
aS'rigidAttachment = False'
p1524
aS'flag ='
p1525
aS'rTrf ='
p1526
aS'modCost = 0'
p1527
aaS'ACTIONGROUPS'
p1528
a(lp1529
aS'DISCOVERY'
p1530
a(lp1531
S'state = 1'
p1532
aS'lastObservedTime = 69.820000000003247'
p1533
aS'lifetime = 1237971.1761474609'
p1534
aS'refTime = 1728000'
p1535
aS'size = 2'
p1536
aaS'FLIGHTPLAN'
p1537
a(lp1538
aS'CTRLSTATE'
p1539
a(lp1540
aS'VESSELMODULES'
p1541
a(lp1542
S'FlightIntegrator'
p1543
a(lp1544
aaa(lp1545
S'pid = 7827c616f289427fbaba6d8388654544'
p1546
aS'name = Ast. AWQ-364'
p1547
aS'type = SpaceObject'
p1548
aS'sit = ORBITING'
p1549
aS'landed = False'
p1550
aS'landedAt ='
p1551
aS'splashed = False'
p1552
aS'met = 99.819999999997279'
p1553
aS'lct = 99.819999999997279'
p1554
aS'lastUT = -1'
p1555
aS'root = 0'
p1556
aS'lat = -0.29659283736879727'
p1557
aS'lon = -170.28698108413116'
p1558
aS'alt = 14246664183.930298'
p1559
aS'hgt = -1'
p1560
aS'nrm = 0,1,0'
p1561
aS'rot = 0.574753225,-0.0172864143,-0.600132465,0.556058347'
p1562
aS'CoM = 0,0,0'
p1563
aS'stg = 0'
p1564
aS'prst = False'
p1565
aS'ref = 0'
p1566
aS'ctrl = False'
p1567
aS'ORBIT'
p1568
a(lp1569
S'SMA = 14037411843.196138'
p1570
aS'ECC = 0.033753887020459478'
p1571
aS'INC = 0.89164401503226765'
p1572
aS'LPE = 25.630071651795369'
p1573
aS'LAN = 350.3688090983527'
p1574
aS'MNA = -0.37386104795791653'
p1575
aS'EPH = 4429189.7736132815'
p1576
aS'REF = 0'
p1577
aaS'PART'
p1578
a(lp1579
S'name = PotatoRoid'
p1580
aS'cid = 0'
p1581
aS'uid = 532831473'
p1582
aS'mid = 532831473'
p1583
aS'launchID = 0'
p1584
aS'parent = 0'
p1585
aS'position = 0,0,0'
p1586
aS'rotation = 0,0,0,1'
p1587
aS'mirror = 1,1,1'
p1588
aS'symMethod = Radial'
p1589
aS'istg = 0'
p1590
aS'resPri = 0'
p1591
aS'dstg = 0'
p1592
aS'sqor = 0'
p1593
aS'sepI = 0'
p1594
aS'sidx = 0'
p1595
aS'attm = 0'
p1596
aS'srfN = None, -1'
p1597
aS'mass = 150'
p1598
aS'shielded = False'
p1599
aS'temp = -1'
p1600
aS'tempExt = 0'
p1601
aS'tempExtUnexp = 0'
p1602
aS'expt = 0.100000001'
p1603
aS'state = 0'
p1604
aS'attached = True'
p1605
aS'autostrutMode = Off'
p1606
aS'rigidAttachment = False'
p1607
aS'flag ='
p1608
aS'rTrf ='
p1609
aS'modCost = 0'
p1610
aaS'ACTIONGROUPS'
p1611
a(lp1612
aS'DISCOVERY'
p1613
a(lp1614
S'state = 1'
p1615
aS'lastObservedTime = 99.819999999997279'
p1616
aS'lifetime = 91237.554931640625'
p1617
aS'refTime = 1728000'
p1618
aS'size = 2'
p1619
aaS'FLIGHTPLAN'
p1620
a(lp1621
aS'CTRLSTATE'
p1622
a(lp1623
aS'VESSELMODULES'
p1624
a(lp1625
S'FlightIntegrator'
p1626
a(lp1627
aaa(lp1628
S'pid = 472146fcf45b490e8bafe4b750581fec'
p1629
aS'name = Ast. FMU-823'
p1630
aS'type = SpaceObject'
p1631
aS'sit = ORBITING'
p1632
aS'landed = False'
p1633
aS'landedAt ='
p1634
aS'splashed = False'
p1635
aS'met = 126.06756835937119'
p1636
aS'lct = 126.06756835937119'
p1637
aS'lastUT = -1'
p1638
aS'root = 0'
p1639
aS'lat = 0.33357108673019137'
p1640
aS'lon = -174.24055199524338'
p1641
aS'alt = 15986162346.29071'
p1642
aS'hgt = -1'
p1643
aS'nrm = 0,1,0'
p1644
aS'rot = -0.440023422,-0.475647897,-0.748399377,0.141551748'
p1645
aS'CoM = 0,0,0'
p1646
aS'stg = 0'
p1647
aS'prst = False'
p1648
aS'ref = 0'
p1649
aS'ctrl = False'
p1650
aS'ORBIT'
p1651
a(lp1652
S'SMA = 16126550062.587275'
p1653
aS'ECC = 0.15980704639539298'
p1654
aS'INC = 0.35074826538857357'
p1655
aS'LPE = 173.84156698338109'
p1656
aS'LAN = 113.8701780869655'
p1657
aS'MNA = -0.0001600724560215943'
p1658
aS'EPH = 2757916.6803613282'
p1659
aS'REF = 0'
p1660
aaS'PART'
p1661
a(lp1662
S'name = PotatoRoid'
p1663
aS'cid = 0'
p1664
aS'uid = 1168916015'
p1665
aS'mid = 1168916015'
p1666
aS'launchID = 0'
p1667
aS'parent = 0'
p1668
aS'position = 0,0,0'
p1669
aS'rotation = 0,0,0,1'
p1670
aS'mirror = 1,1,1'
p1671
aS'symMethod = Radial'
p1672
aS'istg = 0'
p1673
aS'resPri = 0'
p1674
aS'dstg = 0'
p1675
aS'sqor = 0'
p1676
aS'sepI = 0'
p1677
aS'sidx = 0'
p1678
aS'attm = 0'
p1679
aS'srfN = None, -1'
p1680
aS'mass = 150'
p1681
aS'shielded = False'
p1682
aS'temp = -1'
p1683
aS'tempExt = 0'
p1684
aS'tempExtUnexp = 0'
p1685
aS'expt = 0.100000001'
p1686
aS'state = 0'
p1687
aS'attached = True'
p1688
aS'autostrutMode = Off'
p1689
aS'rigidAttachment = False'
p1690
aS'flag ='
p1691
aS'rTrf ='
p1692
aS'modCost = 0'
p1693
aaS'ACTIONGROUPS'
p1694
a(lp1695
aS'DISCOVERY'
p1696
a(lp1697
S'state = 1'
p1698
aS'lastObservedTime = 126.06756835937119'
p1699
aS'lifetime = 202566.08276367188'
p1700
aS'refTime = 1728000'
p1701
aS'size = 2'
p1702
aaS'FLIGHTPLAN'
p1703
a(lp1704
aS'CTRLSTATE'
p1705
a(lp1706
aS'VESSELMODULES'
p1707
a(lp1708
S'FlightIntegrator'
p1709
a(lp1710
aaa(lp1711
S'pid = 2db1e2d3db0f40efa147b7f0fdb62ec4'
p1712
aS"name = Empire's State"
p1713
aS'type = Plane'
p1714
aS'sit = ORBITING'
p1715
aS'landed = False'
p1716
aS'landedAt ='
p1717
aS'splashed = False'
p1718
aS'met = 351.40979492179747'
p1719
aS'lct = 15.679999999999755'
p1720
aS'lastUT = 367.08979492179725'
p1721
aS'root = 0'
p1722
aS'lat = 24.913783603094252'
p1723
aS'lon = -79.559990031982537'
p1724
aS'alt = 152920.93664558488'
p1725
aS'hgt = -1'
p1726
aS'nrm = -0.0588300824,0.206239358,-0.97673142'
p1727
aS'rot = -0.112986192,0.120693244,-0.00867065508,-0.986200809'
p1728
aS'CoM = -2.19643116E-05,3.01919031,0.000498324633'
p1729
aS'stg = 0'
p1730
aS'prst = False'
p1731
aS'ref = 2702270023'
p1732
aS'ctrl = True'
p1733
aS'cPch ='
p1734
aS'cHdg ='
p1735
aS'cMod = 0'
p1736
aS'ORBIT'
p1737
a(lp1738
S'SMA = 754370.07422194118'
p1739
aS'ECC = 0.005874775826972491'
p1740
aS'INC = 89.201727254204869'
p1741
aS'LPE = 96.157369001485577'
p1742
aS'LAN = 16.201721436142293'
p1743
aS'MNA = -1.2322765321661335'
p1744
aS'EPH = 367.08979492179725'
p1745
aS'REF = 1'
p1746
aaS'PART'
p1747
a(lp1748
S'name = Mark2Cockpit'
p1749
aS'cid = 4293853786'
p1750
aS'uid = 2702270023'
p1751
aS'mid = 3392428063'
p1752
aS'launchID = 1'
p1753
aS'parent = 0'
p1754
aS'position = 0,0,0'
p1755
aS'rotation = 0,0,0,1'
p1756
aS'mirror = 1,1,1'
p1757
aS'symMethod = Mirror'
p1758
aS'istg = -1'
p1759
aS'resPri = 0'
p1760
aS'dstg = 0'
p1761
aS'sqor = -1'
p1762
aS'sepI = -1'
p1763
aS'sidx = -1'
p1764
aS'attm = 0'
p1765
aS'srfN = , -1'
p1766
aS'attN = top, 25'
p1767
aS'attN = bottom, 21'
p1768
aS'mass = 1'
p1769
aS'shielded = False'
p1770
aS'temp = 389.14825320409972'
p1771
aS'tempExt = 391.15949923387814'
p1772
aS'tempExtUnexp = 4'
p1773
aS'expt = 0.5'
p1774
aS'state = 0'
p1775
aS'attached = True'
p1776
aS'autostrutMode = Off'
p1777
aS'rigidAttachment = False'
p1778
aS'flag = Squad/Flags/rings'
p1779
aS'rTrf = Mark2Cockpit'
p1780
aS'modCost = 0'
p1781
aS'crew = Jebediah Kerman'
p1782
aS'EVENTS'
p1783
a(lp1784
aS'ACTIONS'
p1785
a(lp1786
aS'PARTDATA'
p1787
a(lp1788
aS'MODULE'
p1789
a(lp1790
S'name = ModuleCommand'
p1791
aS'isEnabled = True'
p1792
aS'hibernation = False'
p1793
aS'hibernateOnWarp = False'
p1794
aS'stagingEnabled = True'
p1795
aS'EVENTS'
p1796
a(lp1797
aS'ACTIONS'
p1798
a(lp1799
S'HibernateToggle'
p1800
a(lp1801
S'actionGroup = None'
p1802
aS'active = False'
p1803
aaaS'UPGRADESAPPLIED'
p1804
a(lp1805
aaS'MODULE'
p1806
a(lp1807
S'name = ModuleReactionWheel'
p1808
aS'isEnabled = True'
p1809
aS'actuatorModeCycle = 0'
p1810
aS'authorityLimiter = 100'
p1811
aS'stateString = Running'
p1812
aS'stagingEnabled = True'
p1813
aS'WheelState = Active'
p1814
aS'EVENTS'
p1815
a(lp1816
aS'ACTIONS'
p1817
a(lp1818
S'CycleAction'
p1819
a(lp1820
S'actionGroup = None'
p1821
aaS'Activate'
p1822
a(lp1823
S'actionGroup = None'
p1824
aaS'Deactivate'
p1825
a(lp1826
S'actionGroup = None'
p1827
aaS'Toggle'
p1828
a(lp1829
S'actionGroup = None'
p1830
aaaS'UPGRADESAPPLIED'
p1831
a(lp1832
aaS'MODULE'
p1833
a(lp1834
S'name = ModuleScienceExperiment'
p1835
aS'isEnabled = True'
p1836
aS'Deployed = False'
p1837
aS'Inoperable = False'
p1838
aS'cooldownToGo = 0'
p1839
aS'stagingEnabled = True'
p1840
aS'EVENTS'
p1841
a(lp1842
aS'ACTIONS'
p1843
a(lp1844
S'DeployAction'
p1845
a(lp1846
S'actionGroup = None'
p1847
aaS'ResetAction'
p1848
a(lp1849
S'actionGroup = None'
p1850
aaaS'UPGRADESAPPLIED'
p1851
a(lp1852
aaS'MODULE'
p1853
a(lp1854
S'name = ModuleScienceContainer'
p1855
aS'isEnabled = True'
p1856
aS'stagingEnabled = True'
p1857
aS'EVENTS'
p1858
a(lp1859
aS'ACTIONS'
p1860
a(lp1861
S'CollectAllAction'
p1862
a(lp1863
S'actionGroup = None'
p1864
aaaS'UPGRADESAPPLIED'
p1865
a(lp1866
aaS'MODULE'
p1867
a(lp1868
S'name = FlagDecal'
p1869
aS'isEnabled = True'
p1870
aS'flagDisplayed = True'
p1871
aS'stagingEnabled = True'
p1872
aS'EVENTS'
p1873
a(lp1874
aS'ACTIONS'
p1875
a(lp1876
aS'UPGRADESAPPLIED'
p1877
a(lp1878
aaS'MODULE'
p1879
a(lp1880
S'name = ModuleAnimateGeneric'
p1881
aS'isEnabled = True'
p1882
aS'aniState = LOCKED'
p1883
aS'animSwitch = True'
p1884
aS'animTime = 0'
p1885
aS'animSpeed = 0.25'
p1886
aS'deployPercent = 100'
p1887
aS'animationIsDisabled = False'
p1888
aS'stagingEnabled = True'
p1889
aS'EVENTS'
p1890
a(lp1891
aS'ACTIONS'
p1892
a(lp1893
S'ToggleAction'
p1894
a(lp1895
S'actionGroup = Light'
p1896
aaaS'UPGRADESAPPLIED'
p1897
a(lp1898
aaS'MODULE'
p1899
a(lp1900
S'name = ModuleDataTransmitter'
p1901
aS'isEnabled = True'
p1902
aS'xmitIncomplete = False'
p1903
aS'stagingEnabled = True'
p1904
aS'canComm = True'
p1905
aS'EVENTS'
p1906
a(lp1907
aS'ACTIONS'
p1908
a(lp1909
S'StartTransmissionAction'
p1910
a(lp1911
S'actionGroup = None'
p1912
aS'active = False'
p1913
aaaS'UPGRADESAPPLIED'
p1914
a(lp1915
aaS'MODULE'
p1916
a(lp1917
S'name = ModuleTripLogger'
p1918
aS'isEnabled = True'
p1919
aS'stagingEnabled = True'
p1920
aS'EVENTS'
p1921
a(lp1922
aS'ACTIONS'
p1923
a(lp1924
aS'Log'
p1925
a(lp1926
S'flight = 0'
p1927
aS'0 = Flight,Kerbin'
p1928
aS'0 = Suborbit,Kerbin'
p1929
aS'0 = Orbit,Kerbin'
p1930
aaS'UPGRADESAPPLIED'
p1931
a(lp1932
aaS'RESOURCE'
p1933
a(lp1934
S'name = ElectricCharge'
p1935
aS'amount = 50'
p1936
aS'maxAmount = 50'
p1937
aS'flowState = True'
p1938
aS'isTweakable = True'
p1939
aS'hideFlow = False'
p1940
aS'isVisible = True'
p1941
aS'flowMode = Both'
p1942
aaS'RESOURCE'
p1943
a(lp1944
S'name = MonoPropellant'
p1945
aS'amount = 7.5'
p1946
aS'maxAmount = 7.5'
p1947
aS'flowState = True'
p1948
aS'isTweakable = True'
p1949
aS'hideFlow = False'
p1950
aS'isVisible = True'
p1951
aS'flowMode = Both'
p1952
aaaS'PART'
p1953
a(lp1954
S'name = structuralIBeam3'
p1955
aS'cid = 4293834612'
p1956
aS'uid = 3150804765'
p1957
aS'mid = 3392428063'
p1958
aS'launchID = 1'
p1959
aS'parent = 0'
p1960
aS'position = 1.4217944145202637,0.025609016418457031,-3.7252902984619141E-09'
p1961
aS'rotation = 0.500000119,0.50000006,-0.49999994,0.5'
p1962
aS'mirror = 1,1,1'
p1963
aS'symMethod = Mirror'
p1964
aS'istg = -1'
p1965
aS'resPri = 0'
p1966
aS'dstg = 0'
p1967
aS'sqor = -1'
p1968
aS'sepI = -1'
p1969
aS'sidx = -1'
p1970
aS'attm = 1'
p1971
aS'sym = 11'
p1972
aS'srfN = srfAttach, 0'
p1973
aS'attN = top, 2'
p1974
aS'attN = bottom, -1'
p1975
aS'mass = 0.1875'
p1976
aS'shielded = False'
p1977
aS'temp = 323.42843380493122'
p1978
aS'tempExt = 344.43451820666479'
p1979
aS'tempExtUnexp = 4'
p1980
aS'expt = 0.5'
p1981
aS'state = 0'
p1982
aS'attached = True'
p1983
aS'autostrutMode = Off'
p1984
aS'rigidAttachment = False'
p1985
aS'flag = Squad/Flags/rings'
p1986
aS'rTrf = structuralIBeam3'
p1987
aS'modCost = 0'
p1988
aS'EVENTS'
p1989
a(lp1990
aS'ACTIONS'
p1991
a(lp1992
aS'PARTDATA'
p1993
a(lp1994
aaS'PART'
p1995
a(lp1996
S'name = structuralPanel2'
p1997
aS'cid = 4293573876'
p1998
aS'uid = 1181633462'
p1999
aS'mid = 3392428063'
p2000
aS'launchID = 1'
p2001
aS'parent = 1'
p2002
aS'position = 2.2517609596252441,0.025609016418457031,2.9313378036022186E-07'
p2003
aS'rotation = 2.98023224E-08,0,-0.707106829,0.707106948'
p2004
aS'mirror = 1,1,1'
p2005
aS'symMethod = Mirror'
p2006
aS'istg = -1'
p2007
aS'resPri = 0'
p2008
aS'dstg = 0'
p2009
aS'sqor = -1'
p2010
aS'sepI = -1'
p2011
aS'sidx = -1'
p2012
aS'attm = 0'
p2013
aS'sym = 12'
p2014
aS'srfN = srfAttach, -1'
p2015
aS'attN = top, -1'
p2016
aS'attN = bottom, 1'
p2017
aS'mass = 0.300000012'
p2018
aS'shielded = False'
p2019
aS'temp = 322.93086639153125'
p2020
aS'tempExt = 322.07804106652264'
p2021
aS'tempExtUnexp = 4'
p2022
aS'expt = 0.5'
p2023
aS'state = 0'
p2024
aS'attached = True'
p2025
aS'autostrutMode = Off'
p2026
aS'rigidAttachment = False'
p2027
aS'flag = Squad/Flags/rings'
p2028
aS'rTrf = structuralPanel2'
p2029
aS'modCost = 0'
p2030
aS'EVENTS'
p2031
a(lp2032
aS'ACTIONS'
p2033
a(lp2034
aS'PARTDATA'
p2035
a(lp2036
aaS'PART'
p2037
a(lp2038
S'name = largeSolarPanel'
p2039
aS'cid = 4293573488'
p2040
aS'uid = 875584481'
p2041
aS'mid = 3392428063'
p2042
aS'launchID = 1'
p2043
aS'parent = 2'
p2044
aS'position = 2.2355790138244629,1.0256471633911133,9.4994902610778809E-07'
p2045
aS'rotation = -0.500000238,0.49999994,-0.500000119,0.5'
p2046
aS'mirror = 1,1,1'
p2047
aS'symMethod = Mirror'
p2048
aS'istg = -1'
p2049
aS'resPri = 0'
p2050
aS'dstg = 0'
p2051
aS'sqor = -1'
p2052
aS'sepI = -1'
p2053
aS'sidx = -1'
p2054
aS'attm = 1'
p2055
aS'sym = 13'
p2056
aS'srfN = srfAttach, 2'
p2057
aS'mass = 0.300000012'
p2058
aS'shielded = False'
p2059
aS'temp = 318.74152400838597'
p2060
aS'tempExt = 314.53850155440682'
p2061
aS'tempExtUnexp = 4'
p2062
aS'expt = 0.5'
p2063
aS'state = 0'
p2064
aS'attached = True'
p2065
aS'autostrutMode = Off'
p2066
aS'rigidAttachment = False'
p2067
aS'flag = Squad/Flags/rings'
p2068
aS'rTrf = largeSolarPanel'
p2069
aS'modCost = 0'
p2070
aS'EVENTS'
p2071
a(lp2072
aS'ACTIONS'
p2073
a(lp2074
aS'PARTDATA'
p2075
a(lp2076
aS'MODULE'
p2077
a(lp2078
S'name = ModuleDeployableSolarPanel'
p2079
aS'isEnabled = True'
p2080
aS'efficiencyMult = 1'
p2081
aS'launchUT = 15.679999999999755'
p2082
aS'currentRotation = (-0.581043899, -0.581045568, -0.402970999, 0.402974457)'
p2083
aS'storedAnimationTime = 0'
p2084
aS'storedAnimationSpeed = 1'
p2085
aS'deployState = EXTENDED'
p2086
aS'stagingEnabled = True'
p2087
aS'EVENTS'
p2088
a(lp2089
aS'ACTIONS'
p2090
a(lp2091
S'ExtendPanelsAction'
p2092
a(lp2093
S'actionGroup = None'
p2094
aaS'ExtendAction'
p2095
a(lp2096
S'actionGroup = None'
p2097
aaS'RetractAction'
p2098
a(lp2099
S'actionGroup = None'
p2100
aaaS'UPGRADESAPPLIED'
p2101
a(lp2102
aaaS'PART'
p2103
a(lp2104
S'name = structuralPanel2'
p2105
aS'cid = 4293573356'
p2106
aS'uid = 995229864'
p2107
aS'mid = 3392428063'
p2108
aS'launchID = 1'
p2109
aS'parent = 2'
p2110
aS'position = 1.5552197694778442,0.025606155395507813,-1.6924749612808228'
p2111
aS'rotation = -0.270598084,0.270598143,-0.653281689,0.65328145'
p2112
aS'mirror = 1,1,1'
p2113
aS'symMethod = Mirror'
p2114
aS'istg = -1'
p2115
aS'resPri = 0'
p2116
aS'dstg = 0'
p2117
aS'sqor = -1'
p2118
aS'sepI = -1'
p2119
aS'sidx = -1'
p2120
aS'attm = 1'
p2121
aS'sym = 14'
p2122
aS'srfN = srfAttach, 2'
p2123
aS'attN = top, -1'
p2124
aS'attN = bottom, -1'
p2125
aS'mass = 0.300000012'
p2126
aS'shielded = False'
p2127
aS'temp = 319.3412821736016'
p2128
aS'tempExt = 318.91366403350236'
p2129
aS'tempExtUnexp = 4'
p2130
aS'expt = 0.5'
p2131
aS'state = 0'
p2132
aS'attached = True'
p2133
aS'autostrutMode = Off'
p2134
aS'rigidAttachment = False'
p2135
aS'flag = Squad/Flags/rings'
p2136
aS'rTrf = structuralPanel2'
p2137
aS'modCost = 0'
p2138
aS'EVENTS'
p2139
a(lp2140
aS'ACTIONS'
p2141
a(lp2142
aS'PARTDATA'
p2143
a(lp2144
aaS'PART'
p2145
a(lp2146
S'name = largeSolarPanel'
p2147
aS'cid = 4293573334'
p2148
aS'uid = 1585401471'
p2149
aS'mid = 3392428063'
p2150
aS'launchID = 1'
p2151
aS'parent = 4'
p2152
aS'position = 1.5437775850296021,1.0256443023681641,-1.6810319423675537'
p2153
aS'rotation = -0.653281689,0.653281629,-0.270598233,0.270597816'
p2154
aS'mirror = 1,1,1'
p2155
aS'symMethod = Mirror'
p2156
aS'istg = -1'
p2157
aS'resPri = 0'
p2158
aS'dstg = 0'
p2159
aS'sqor = -1'
p2160
aS'sepI = -1'
p2161
aS'sidx = -1'
p2162
aS'attm = 1'
p2163
aS'sym = 15'
p2164
aS'srfN = srfAttach, 4'
p2165
aS'mass = 0.300000012'
p2166
aS'shielded = False'
p2167
aS'temp = 317.50240175242078'
p2168
aS'tempExt = 314.62565171787105'
p2169
aS'tempExtUnexp = 4'
p2170
aS'expt = 0.5'
p2171
aS'state = 0'
p2172
aS'attached = True'
p2173
aS'autostrutMode = Off'
p2174
aS'rigidAttachment = False'
p2175
aS'flag = Squad/Flags/rings'
p2176
aS'rTrf = largeSolarPanel'
p2177
aS'modCost = 0'
p2178
aS'EVENTS'
p2179
a(lp2180
aS'ACTIONS'
p2181
a(lp2182
aS'PARTDATA'
p2183
a(lp2184
aS'MODULE'
p2185
a(lp2186
S'name = ModuleDeployableSolarPanel'
p2187
aS'isEnabled = True'
p2188
aS'efficiencyMult = 1'
p2189
aS'launchUT = 15.679999999999755'
p2190
aS'currentRotation = (-0.382600248, -0.382603168, -0.594655335, 0.594656885)'
p2191
aS'storedAnimationTime = 0'
p2192
aS'storedAnimationSpeed = 1'
p2193
aS'deployState = EXTENDED'
p2194
aS'stagingEnabled = True'
p2195
aS'EVENTS'
p2196
a(lp2197
aS'ACTIONS'
p2198
a(lp2199
S'ExtendPanelsAction'
p2200
a(lp2201
S'actionGroup = None'
p2202
aaS'ExtendAction'
p2203
a(lp2204
S'actionGroup = None'
p2205
aaS'RetractAction'
p2206
a(lp2207
S'actionGroup = None'
p2208
aaaS'UPGRADESAPPLIED'
p2209
a(lp2210
aaaS'PART'
p2211
a(lp2212
S'name = vernierEngine'
p2213
aS'cid = 4293572242'
p2214
aS'uid = 224026089'
p2215
aS'mid = 3392428063'
p2216
aS'launchID = 1'
p2217
aS'parent = 4'
p2218
aS'position = 1.5670057535171509,-0.49001312255859375,-1.7042624950408936'
p2219
aS'rotation = -5.36441803E-07,-0.923879683,-5.06639481E-07,0.382683665'
p2220
aS'mirror = 1,1,1'
p2221
aS'symMethod = Mirror'
p2222
aS'istg = -1'
p2223
aS'resPri = 0'
p2224
aS'dstg = 0'
p2225
aS'sqor = -1'
p2226
aS'sepI = -1'
p2227
aS'sidx = -1'
p2228
aS'attm = 1'
p2229
aS'sym = 16'
p2230
aS'srfN = srfAttach, 4'
p2231
aS'mass = 0.0799999982'
p2232
aS'shielded = False'
p2233
aS'temp = 318.84617637525031'
p2234
aS'tempExt = 318.38037501458433'
p2235
aS'tempExtUnexp = 4'
p2236
aS'expt = 0.5'
p2237
aS'state = 0'
p2238
aS'attached = True'
p2239
aS'autostrutMode = Off'
p2240
aS'rigidAttachment = False'
p2241
aS'flag = Squad/Flags/rings'
p2242
aS'rTrf = vernierEngine'
p2243
aS'modCost = 0'
p2244
aS'EVENTS'
p2245
a(lp2246
aS'ACTIONS'
p2247
a(lp2248
aS'PARTDATA'
p2249
a(lp2250
aS'MODULE'
p2251
a(lp2252
S'name = ModuleRCSFX'
p2253
aS'isEnabled = True'
p2254
aS'rcsEnabled = True'
p2255
aS'thrustPercentage = 100'
p2256
aS'currentShowToggles = False'
p2257
aS'enableYaw = True'
p2258
aS'enablePitch = True'
p2259
aS'enableRoll = True'
p2260
aS'enableX = True'
p2261
aS'enableY = True'
p2262
aS'enableZ = True'
p2263
aS'useThrottle = False'
p2264
aS'fullThrust = False'
p2265
aS'stagingEnabled = False'
p2266
aS'EVENTS'
p2267
a(lp2268
aS'ACTIONS'
p2269
a(lp2270
S'ToggleAction'
p2271
a(lp2272
S'actionGroup = None'
p2273
aaaS'UPGRADESAPPLIED'
p2274
a(lp2275
aaaS'PART'
p2276
a(lp2277
S'name = structuralPanel2'
p2278
aS'cid = 4293573180'
p2279
aS'uid = 3689707208'
p2280
aS'mid = 3392428063'
p2281
aS'launchID = 1'
p2282
aS'parent = 2'
p2283
aS'position = 1.532256007194519,0.025609016418457031,1.7067552804946899'
p2284
aS'rotation = -0.270597637,0.270598263,0.653281748,-0.65328151'
p2285
aS'mirror = 1,1,1'
p2286
aS'symMethod = Mirror'
p2287
aS'istg = -1'
p2288
aS'resPri = 0'
p2289
aS'dstg = 0'
p2290
aS'sqor = -1'
p2291
aS'sepI = -1'
p2292
aS'sidx = -1'
p2293
aS'attm = 1'
p2294
aS'sym = 17'
p2295
aS'srfN = srfAttach, 2'
p2296
aS'attN = top, -1'
p2297
aS'attN = bottom, -1'
p2298
aS'mass = 0.300000012'
p2299
aS'shielded = False'
p2300
aS'temp = 318.03103412147919'
p2301
aS'tempExt = 317.71436965740895'
p2302
aS'tempExtUnexp = 4'
p2303
aS'expt = 0.5'
p2304
aS'state = 0'
p2305
aS'attached = True'
p2306
aS'autostrutMode = Off'
p2307
aS'rigidAttachment = False'
p2308
aS'flag = Squad/Flags/rings'
p2309
aS'rTrf = structuralPanel2'
p2310
aS'modCost = 0'
p2311
aS'EVENTS'
p2312
a(lp2313
aS'ACTIONS'
p2314
a(lp2315
aS'PARTDATA'
p2316
a(lp2317
aaS'PART'
p2318
a(lp2319
S'name = largeSolarPanel'
p2320
aS'cid = 4293573158'
p2321
aS'uid = 2137960001'
p2322
aS'mid = 3392428063'
p2323
aS'launchID = 1'
p2324
aS'parent = 7'
p2325
aS'position = 1.5208139419555664,1.0256481170654297,1.6953128576278687'
p2326
aS'rotation = 0.270598382,-0.270597905,0.653282046,-0.653281152'
p2327
aS'mirror = 1,1,1'
p2328
aS'symMethod = Mirror'
p2329
aS'istg = -1'
p2330
aS'resPri = 0'
p2331
aS'dstg = 0'
p2332
aS'sqor = -1'
p2333
aS'sepI = -1'
p2334
aS'sidx = -1'
p2335
aS'attm = 1'
p2336
aS'sym = 18'
p2337
aS'srfN = srfAttach, 7'
p2338
aS'mass = 0.300000012'
p2339
aS'shielded = False'
p2340
aS'temp = 315.36619630570249'
p2341
aS'tempExt = 312.49659971514262'
p2342
aS'tempExtUnexp = 4'
p2343
aS'expt = 0.5'
p2344
aS'state = 0'
p2345
aS'attached = True'
p2346
aS'autostrutMode = Off'
p2347
aS'rigidAttachment = False'
p2348
aS'flag = Squad/Flags/rings'
p2349
aS'rTrf = largeSolarPanel'
p2350
aS'modCost = 0'
p2351
aS'EVENTS'
p2352
a(lp2353
aS'ACTIONS'
p2354
a(lp2355
aS'PARTDATA'
p2356
a(lp2357
aS'MODULE'
p2358
a(lp2359
S'name = ModuleDeployableSolarPanel'
p2360
aS'isEnabled = True'
p2361
aS'efficiencyMult = 1'
p2362
aS'launchUT = 15.679999999999755'
p2363
aS'currentRotation = (-0.691031635, -0.691020191, -0.149942741, 0.149945289)'
p2364
aS'storedAnimationTime = 0'
p2365
aS'storedAnimationSpeed = 1'
p2366
aS'deployState = EXTENDED'
p2367
aS'stagingEnabled = True'
p2368
aS'EVENTS'
p2369
a(lp2370
aS'ACTIONS'
p2371
a(lp2372
S'ExtendPanelsAction'
p2373
a(lp2374
S'actionGroup = None'
p2375
aaS'ExtendAction'
p2376
a(lp2377
S'actionGroup = None'
p2378
aaS'RetractAction'
p2379
a(lp2380
S'actionGroup = None'
p2381
aaaS'UPGRADESAPPLIED'
p2382
a(lp2383
aaaS'PART'
p2384
a(lp2385
S'name = vernierEngine'
p2386
aS'cid = 4293572178'
p2387
aS'uid = 3772683282'
p2388
aS'mid = 3392428063'
p2389
aS'launchID = 1'
p2390
aS'parent = 7'
p2391
aS'position = 1.5440422296524048,-0.48220920562744141,1.7185428142547607'
p2392
aS'rotation = 2.98023224E-08,-0.923879623,4.47034836E-08,-0.382683277'
p2393
aS'mirror = 1,1,1'
p2394
aS'symMethod = Mirror'
p2395
aS'istg = -1'
p2396
aS'resPri = 0'
p2397
aS'dstg = 0'
p2398
aS'sqor = -1'
p2399
aS'sepI = -1'
p2400
aS'sidx = -1'
p2401
aS'attm = 1'
p2402
aS'sym = 19'
p2403
aS'srfN = srfAttach, 7'
p2404
aS'mass = 0.0799999982'
p2405
aS'shielded = False'
p2406
aS'temp = 317.38838960149297'
p2407
aS'tempExt = 317.06231561098036'
p2408
aS'tempExtUnexp = 4'
p2409
aS'expt = 0.5'
p2410
aS'state = 0'
p2411
aS'attached = True'
p2412
aS'autostrutMode = Off'
p2413
aS'rigidAttachment = False'
p2414
aS'flag = Squad/Flags/rings'
p2415
aS'rTrf = vernierEngine'
p2416
aS'modCost = 0'
p2417
aS'EVENTS'
p2418
a(lp2419
aS'ACTIONS'
p2420
a(lp2421
aS'PARTDATA'
p2422
a(lp2423
aS'MODULE'
p2424
a(lp2425
S'name = ModuleRCSFX'
p2426
aS'isEnabled = True'
p2427
aS'rcsEnabled = True'
p2428
aS'thrustPercentage = 100'
p2429
aS'currentShowToggles = False'
p2430
aS'enableYaw = True'
p2431
aS'enablePitch = True'
p2432
aS'enableRoll = True'
p2433
aS'enableX = True'
p2434
aS'enableY = True'
p2435
aS'enableZ = True'
p2436
aS'useThrottle = False'
p2437
aS'fullThrust = False'
p2438
aS'stagingEnabled = False'
p2439
aS'EVENTS'
p2440
a(lp2441
aS'ACTIONS'
p2442
a(lp2443
S'ToggleAction'
p2444
a(lp2445
S'actionGroup = None'
p2446
aaaS'UPGRADESAPPLIED'
p2447
a(lp2448
aaaS'PART'
p2449
a(lp2450
S'name = radPanelLg'
p2451
aS'cid = 4293572960'
p2452
aS'uid = 2951090034'
p2453
aS'mid = 3392428063'
p2454
aS'launchID = 1'
p2455
aS'parent = 2'
p2456
aS'position = 2.2684288024902344,-0.038475990295410156,3.0919909477233887E-07'
p2457
aS'rotation = -8.94069814E-08,0.707106888,-8.94069672E-08,-0.707107067'
p2458
aS'mirror = 1,1,1'
p2459
aS'symMethod = Mirror'
p2460
aS'istg = -1'
p2461
aS'resPri = 0'
p2462
aS'dstg = 0'
p2463
aS'sqor = -1'
p2464
aS'sepI = -1'
p2465
aS'sidx = -1'
p2466
aS'attm = 1'
p2467
aS'sym = 20'
p2468
aS'srfN = srfAttach, 2'
p2469
aS'mass = 0.0500000007'
p2470
aS'shielded = False'
p2471
aS'temp = 312.15453668702617'
p2472
aS'tempExt = 311.97847767725631'
p2473
aS'tempExtUnexp = 4'
p2474
aS'expt = 0.5'
p2475
aS'state = 0'
p2476
aS'attached = True'
p2477
aS'autostrutMode = Off'
p2478
aS'rigidAttachment = False'
p2479
aS'flag = Squad/Flags/rings'
p2480
aS'rTrf = radPanelLg'
p2481
aS'modCost = 0'
p2482
aS'EVENTS'
p2483
a(lp2484
aS'ACTIONS'
p2485
a(lp2486
aS'PARTDATA'
p2487
a(lp2488
aS'MODULE'
p2489
a(lp2490
S'name = ModuleActiveRadiator'
p2491
aS'isEnabled = True'
p2492
aS'IsCooling = False'
p2493
aS'stagingEnabled = True'
p2494
aS'EVENTS'
p2495
a(lp2496
aS'ACTIONS'
p2497
a(lp2498
S'ToggleRadiatorAction'
p2499
a(lp2500
S'actionGroup = None'
p2501
aaS'ActivateAction'
p2502
a(lp2503
S'actionGroup = None'
p2504
aaS'ShutdownAction'
p2505
a(lp2506
S'actionGroup = None'
p2507
aaaS'UPGRADESAPPLIED'
p2508
a(lp2509
aaaS'PART'
p2510
a(lp2511
S'name = structuralIBeam3'
p2512
aS'cid = 4293833600'
p2513
aS'uid = 1618181286'
p2514
aS'mid = 3392428063'
p2515
aS'launchID = 1'
p2516
aS'parent = 0'
p2517
aS'position = -1.4217944145202637,0.025609970092773438,-3.7252902984619141E-09'
p2518
aS'rotation = 0.500000119,-0.5,0.49999994,0.5'
p2519
aS'mirror = 1,1,1'
p2520
aS'symMethod = Mirror'
p2521
aS'istg = -1'
p2522
aS'resPri = 0'
p2523
aS'dstg = 0'
p2524
aS'sqor = -1'
p2525
aS'sepI = -1'
p2526
aS'sidx = -1'
p2527
aS'attm = 1'
p2528
aS'sym = 1'
p2529
aS'srfN = srfAttach, 0'
p2530
aS'attN = top, 12'
p2531
aS'attN = bottom, -1'
p2532
aS'mass = 0.1875'
p2533
aS'shielded = False'
p2534
aS'temp = 320.60256325856017'
p2535
aS'tempExt = 342.71679975198077'
p2536
aS'tempExtUnexp = 4'
p2537
aS'expt = 0.5'
p2538
aS'state = 0'
p2539
aS'attached = True'
p2540
aS'autostrutMode = Off'
p2541
aS'rigidAttachment = False'
p2542
aS'flag = Squad/Flags/rings'
p2543
aS'rTrf = structuralIBeam3'
p2544
aS'modCost = 0'
p2545
aS'EVENTS'
p2546
a(lp2547
aS'ACTIONS'
p2548
a(lp2549
aS'PARTDATA'
p2550
a(lp2551
aaS'PART'
p2552
a(lp2553
S'name = structuralPanel2'
p2554
aS'cid = 4293573854'
p2555
aS'uid = 3169840659'
p2556
aS'mid = 3392428063'
p2557
aS'launchID = 1'
p2558
aS'parent = 11'
p2559
aS'position = -2.2517597675323486,0.025609016418457031,8.3935447037220001E-08'
p2560
aS'rotation = 2.98023224E-08,-2.98023224E-08,0.707106829,0.707106829'
p2561
aS'mirror = 1,1,1'
p2562
aS'symMethod = Mirror'
p2563
aS'istg = -1'
p2564
aS'resPri = 0'
p2565
aS'dstg = 0'
p2566
aS'sqor = -1'
p2567
aS'sepI = -1'
p2568
aS'sidx = -1'
p2569
aS'attm = 0'
p2570
aS'sym = 2'
p2571
aS'srfN = srfAttach, -1'
p2572
aS'attN = top, -1'
p2573
aS'attN = bottom, 11'
p2574
aS'mass = 0.300000012'
p2575
aS'shielded = False'
p2576
aS'temp = 320.08964815842592'
p2577
aS'tempExt = 319.67817480887277'
p2578
aS'tempExtUnexp = 4'
p2579
aS'expt = 0.5'
p2580
aS'state = 0'
p2581
aS'attached = True'
p2582
aS'autostrutMode = Off'
p2583
aS'rigidAttachment = False'
p2584
aS'flag = Squad/Flags/rings'
p2585
aS'rTrf = structuralPanel2'
p2586
aS'modCost = 0'
p2587
aS'EVENTS'
p2588
a(lp2589
aS'ACTIONS'
p2590
a(lp2591
aS'PARTDATA'
p2592
a(lp2593
aaS'PART'
p2594
a(lp2595
S'name = largeSolarPanel'
p2596
aS'cid = 4293573422'
p2597
aS'uid = 3144872169'
p2598
aS'mid = 3392428063'
p2599
aS'launchID = 1'
p2600
aS'parent = 12'
p2601
aS'position = -2.2355785369873047,1.0256471633911133,3.5390257835388184E-07'
p2602
aS'rotation = 0.500000238,-0.499999881,0.500000298,-0.499999881'
p2603
aS'mirror = 1,1,1'
p2604
aS'symMethod = Mirror'
p2605
aS'istg = -1'
p2606
aS'resPri = 0'
p2607
aS'dstg = 0'
p2608
aS'sqor = -1'
p2609
aS'sepI = -1'
p2610
aS'sidx = -1'
p2611
aS'attm = 1'
p2612
aS'sym = 3'
p2613
aS'srfN = srfAttach, 12'
p2614
aS'mass = 0.300000012'
p2615
aS'shielded = False'
p2616
aS'temp = 315.72081373090447'
p2617
aS'tempExt = 311.80688921484017'
p2618
aS'tempExtUnexp = 4'
p2619
aS'expt = 0.5'
p2620
aS'state = 0'
p2621
aS'attached = True'
p2622
aS'autostrutMode = Off'
p2623
aS'rigidAttachment = False'
p2624
aS'flag = Squad/Flags/rings'
p2625
aS'rTrf = largeSolarPanel'
p2626
aS'modCost = 0'
p2627
aS'EVENTS'
p2628
a(lp2629
aS'ACTIONS'
p2630
a(lp2631
aS'PARTDATA'
p2632
a(lp2633
aS'MODULE'
p2634
a(lp2635
S'name = ModuleDeployableSolarPanel'
p2636
aS'isEnabled = True'
p2637
aS'efficiencyMult = 1'
p2638
aS'launchUT = 15.679999999999755'
p2639
aS'currentRotation = (-0.581046283, -0.581043899, -0.402972221, 0.402972311)'
p2640
aS'storedAnimationTime = 0'
p2641
aS'storedAnimationSpeed = 1'
p2642
aS'deployState = EXTENDED'
p2643
aS'stagingEnabled = True'
p2644
aS'EVENTS'
p2645
a(lp2646
aS'ACTIONS'
p2647
a(lp2648
S'ExtendPanelsAction'
p2649
a(lp2650
S'actionGroup = None'
p2651
aaS'ExtendAction'
p2652
a(lp2653
S'actionGroup = None'
p2654
aaS'RetractAction'
p2655
a(lp2656
S'actionGroup = None'
p2657
aaaS'UPGRADESAPPLIED'
p2658
a(lp2659
aaaS'PART'
p2660
a(lp2661
S'name = structuralPanel2'
p2662
aS'cid = 4293573268'
p2663
aS'uid = 1896032317'
p2664
aS'mid = 3392428063'
p2665
aS'launchID = 1'
p2666
aS'parent = 12'
p2667
aS'position = -1.5552198886871338,0.025606155395507813,-1.692473292350769'
p2668
aS'rotation = 0.653281808,-0.653281331,0.270598054,-0.270597965'
p2669
aS'mirror = 1,1,1'
p2670
aS'symMethod = Mirror'
p2671
aS'istg = -1'
p2672
aS'resPri = 0'
p2673
aS'dstg = 0'
p2674
aS'sqor = -1'
p2675
aS'sepI = -1'
p2676
aS'sidx = -1'
p2677
aS'attm = 1'
p2678
aS'sym = 4'
p2679
aS'srfN = srfAttach, 12'
p2680
aS'attN = top, -1'
p2681
aS'attN = bottom, -1'
p2682
aS'mass = 0.300000012'
p2683
aS'shielded = False'
p2684
aS'temp = 317.0979095440884'
p2685
aS'tempExt = 317.51033786206051'
p2686
aS'tempExtUnexp = 4'
p2687
aS'expt = 0.5'
p2688
aS'state = 0'
p2689
aS'attached = True'
p2690
aS'autostrutMode = Off'
p2691
aS'rigidAttachment = False'
p2692
aS'flag = Squad/Flags/rings'
p2693
aS'rTrf = structuralPanel2'
p2694
aS'modCost = 0'
p2695
aS'EVENTS'
p2696
a(lp2697
aS'ACTIONS'
p2698
a(lp2699
aS'PARTDATA'
p2700
a(lp2701
aaS'PART'
p2702
a(lp2703
S'name = largeSolarPanel'
p2704
aS'cid = 4293573246'
p2705
aS'uid = 4100537770'
p2706
aS'mid = 3392428063'
p2707
aS'launchID = 1'
p2708
aS'parent = 14'
p2709
aS'position = -1.5437777042388916,1.0256452560424805,-1.6810308694839478'
p2710
aS'rotation = -0.270598263,0.270598114,-0.653281689,0.65328145'
p2711
aS'mirror = 1,1,1'
p2712
aS'symMethod = Mirror'
p2713
aS'istg = -1'
p2714
aS'resPri = 0'
p2715
aS'dstg = 0'
p2716
aS'sqor = -1'
p2717
aS'sepI = -1'
p2718
aS'sidx = -1'
p2719
aS'attm = 1'
p2720
aS'sym = 5'
p2721
aS'srfN = srfAttach, 14'
p2722
aS'mass = 0.300000012'
p2723
aS'shielded = False'
p2724
aS'temp = 315.73091234663337'
p2725
aS'tempExt = 315.60247078978733'
p2726
aS'tempExtUnexp = 4'
p2727
aS'expt = 0.5'
p2728
aS'state = 0'
p2729
aS'attached = True'
p2730
aS'autostrutMode = Off'
p2731
aS'rigidAttachment = False'
p2732
aS'flag = Squad/Flags/rings'
p2733
aS'rTrf = largeSolarPanel'
p2734
aS'modCost = 0'
p2735
aS'EVENTS'
p2736
a(lp2737
aS'ACTIONS'
p2738
a(lp2739
aS'PARTDATA'
p2740
a(lp2741
aS'MODULE'
p2742
a(lp2743
S'name = ModuleDeployableSolarPanel'
p2744
aS'isEnabled = True'
p2745
aS'efficiencyMult = 1'
p2746
aS'launchUT = 15.679999999999755'
p2747
aS'currentRotation = (-0.691032052, -0.691019952, -0.149942607, 0.149944484)'
p2748
aS'storedAnimationTime = 0'
p2749
aS'storedAnimationSpeed = 1'
p2750
aS'deployState = EXTENDED'
p2751
aS'stagingEnabled = True'
p2752
aS'EVENTS'
p2753
a(lp2754
aS'ACTIONS'
p2755
a(lp2756
S'ExtendPanelsAction'
p2757
a(lp2758
S'actionGroup = None'
p2759
aaS'ExtendAction'
p2760
a(lp2761
S'actionGroup = None'
p2762
aaS'RetractAction'
p2763
a(lp2764
S'actionGroup = None'
p2765
aaaS'UPGRADESAPPLIED'
p2766
a(lp2767
aaaS'PART'
p2768
a(lp2769
S'name = vernierEngine'
p2770
aS'cid = 4293572210'
p2771
aS'uid = 4040863707'
p2772
aS'mid = 3392428063'
p2773
aS'launchID = 1'
p2774
aS'parent = 14'
p2775
aS'position = -1.5670061111450195,-0.49001121520996094,-1.7042596340179443'
p2776
aS'rotation = 3.57627869E-07,-0.382683665,4.47034836E-07,0.923879623'
p2777
aS'mirror = 1,1,1'
p2778
aS'symMethod = Mirror'
p2779
aS'istg = -1'
p2780
aS'resPri = 0'
p2781
aS'dstg = 0'
p2782
aS'sqor = -1'
p2783
aS'sepI = -1'
p2784
aS'sidx = -1'
p2785
aS'attm = 1'
p2786
aS'sym = 6'
p2787
aS'srfN = srfAttach, 14'
p2788
aS'mass = 0.0799999982'
p2789
aS'shielded = False'
p2790
aS'temp = 316.30318758950176'
p2791
aS'tempExt = 316.43067627003865'
p2792
aS'tempExtUnexp = 4'
p2793
aS'expt = 0.5'
p2794
aS'state = 0'
p2795
aS'attached = True'
p2796
aS'autostrutMode = Off'
p2797
aS'rigidAttachment = False'
p2798
aS'flag = Squad/Flags/rings'
p2799
aS'rTrf = vernierEngine'
p2800
aS'modCost = 0'
p2801
aS'EVENTS'
p2802
a(lp2803
aS'ACTIONS'
p2804
a(lp2805
aS'PARTDATA'
p2806
a(lp2807
aS'MODULE'
p2808
a(lp2809
S'name = ModuleRCSFX'
p2810
aS'isEnabled = True'
p2811
aS'rcsEnabled = True'
p2812
aS'thrustPercentage = 100'
p2813
aS'currentShowToggles = False'
p2814
aS'enableYaw = True'
p2815
aS'enablePitch = True'
p2816
aS'enableRoll = True'
p2817
aS'enableX = True'
p2818
aS'enableY = True'
p2819
aS'enableZ = True'
p2820
aS'useThrottle = False'
p2821
aS'fullThrust = False'
p2822
aS'stagingEnabled = False'
p2823
aS'EVENTS'
p2824
a(lp2825
aS'ACTIONS'
p2826
a(lp2827
S'ToggleAction'
p2828
a(lp2829
S'actionGroup = None'
p2830
aaaS'UPGRADESAPPLIED'
p2831
a(lp2832
aaaS'PART'
p2833
a(lp2834
S'name = structuralPanel2'
p2835
aS'cid = 4293636932'
p2836
aS'uid = 956307348'
p2837
aS'mid = 3392428063'
p2838
aS'launchID = 1'
p2839
aS'parent = 12'
p2840
aS'position = -1.5322556495666504,0.025609016418457031,1.7067539691925049'
p2841
aS'rotation = 0.653281808,-0.65328145,-0.270597607,0.270598203'
p2842
aS'mirror = 1,1,1'
p2843
aS'symMethod = Mirror'
p2844
aS'istg = -1'
p2845
aS'resPri = 0'
p2846
aS'dstg = 0'
p2847
aS'sqor = -1'
p2848
aS'sepI = -1'
p2849
aS'sidx = -1'
p2850
aS'attm = 1'
p2851
aS'sym = 7'
p2852
aS'srfN = srfAttach, 12'
p2853
aS'attN = top, -1'
p2854
aS'attN = bottom, -1'
p2855
aS'mass = 0.300000012'
p2856
aS'shielded = False'
p2857
aS'temp = 314.99775999895587'
p2858
aS'tempExt = 314.80053366903024'
p2859
aS'tempExtUnexp = 4'
p2860
aS'expt = 0.5'
p2861
aS'state = 0'
p2862
aS'attached = True'
p2863
aS'autostrutMode = Off'
p2864
aS'rigidAttachment = False'
p2865
aS'flag = Squad/Flags/rings'
p2866
aS'rTrf = structuralPanel2'
p2867
aS'modCost = 0'
p2868
aS'EVENTS'
p2869
a(lp2870
aS'ACTIONS'
p2871
a(lp2872
aS'PARTDATA'
p2873
a(lp2874
aaS'PART'
p2875
a(lp2876
S'name = largeSolarPanel'
p2877
aS'cid = 4293636888'
p2878
aS'uid = 204443649'
p2879
aS'mid = 3392428063'
p2880
aS'launchID = 1'
p2881
aS'parent = 17'
p2882
aS'position = -1.5208137035369873,1.0256452560424805,1.6953111886978149'
p2883
aS'rotation = 0.653281927,-0.653281093,0.270598412,-0.270597935'
p2884
aS'mirror = 1,1,1'
p2885
aS'symMethod = Mirror'
p2886
aS'istg = -1'
p2887
aS'resPri = 0'
p2888
aS'dstg = 0'
p2889
aS'sqor = -1'
p2890
aS'sepI = -1'
p2891
aS'sidx = -1'
p2892
aS'attm = 1'
p2893
aS'sym = 8'
p2894
aS'srfN = srfAttach, 17'
p2895
aS'mass = 0.300000012'
p2896
aS'shielded = False'
p2897
aS'temp = 312.17502876767162'
p2898
aS'tempExt = 309.0986615369319'
p2899
aS'tempExtUnexp = 4'
p2900
aS'expt = 0.5'
p2901
aS'state = 0'
p2902
aS'attached = True'
p2903
aS'autostrutMode = Off'
p2904
aS'rigidAttachment = False'
p2905
aS'flag = Squad/Flags/rings'
p2906
aS'rTrf = largeSolarPanel'
p2907
aS'modCost = 0'
p2908
aS'EVENTS'
p2909
a(lp2910
aS'ACTIONS'
p2911
a(lp2912
aS'PARTDATA'
p2913
a(lp2914
aS'MODULE'
p2915
a(lp2916
S'name = ModuleDeployableSolarPanel'
p2917
aS'isEnabled = True'
p2918
aS'efficiencyMult = 1'
p2919
aS'launchUT = 15.679999999999755'
p2920
aS'currentRotation = (-0.3826029, -0.382604092, -0.594655573, 0.594654441)'
p2921
aS'storedAnimationTime = 0'
p2922
aS'storedAnimationSpeed = 1'
p2923
aS'deployState = EXTENDED'
p2924
aS'stagingEnabled = True'
p2925
aS'EVENTS'
p2926
a(lp2927
aS'ACTIONS'
p2928
a(lp2929
S'ExtendPanelsAction'
p2930
a(lp2931
S'actionGroup = None'
p2932
aaS'ExtendAction'
p2933
a(lp2934
S'actionGroup = None'
p2935
aaS'RetractAction'
p2936
a(lp2937
S'actionGroup = None'
p2938
aaaS'UPGRADESAPPLIED'
p2939
a(lp2940
aaaS'PART'
p2941
a(lp2942
S'name = vernierEngine'
p2943
aS'cid = 4293583850'
p2944
aS'uid = 1552865203'
p2945
aS'mid = 3392428063'
p2946
aS'launchID = 1'
p2947
aS'parent = 17'
p2948
aS'position = -1.5440418720245361,-0.48220920562744141,1.7185404300689697'
p2949
aS'rotation = 1.49011612E-08,0.382683218,1.49011612E-07,0.923879743'
p2950
aS'mirror = 1,1,1'
p2951
aS'symMethod = Mirror'
p2952
aS'istg = -1'
p2953
aS'resPri = 0'
p2954
aS'dstg = 0'
p2955
aS'sqor = -1'
p2956
aS'sepI = -1'
p2957
aS'sidx = -1'
p2958
aS'attm = 1'
p2959
aS'sym = 9'
p2960
aS'srfN = srfAttach, 17'
p2961
aS'mass = 0.0799999982'
p2962
aS'shielded = False'
p2963
aS'temp = 314.32431852903869'
p2964
aS'tempExt = 314.27435522919598'
p2965
aS'tempExtUnexp = 4'
p2966
aS'expt = 0.5'
p2967
aS'state = 0'
p2968
aS'attached = True'
p2969
aS'autostrutMode = Off'
p2970
aS'rigidAttachment = False'
p2971
aS'flag = Squad/Flags/rings'
p2972
aS'rTrf = vernierEngine'
p2973
aS'modCost = 0'
p2974
aS'EVENTS'
p2975
a(lp2976
aS'ACTIONS'
p2977
a(lp2978
aS'PARTDATA'
p2979
a(lp2980
aS'MODULE'
p2981
a(lp2982
S'name = ModuleRCSFX'
p2983
aS'isEnabled = True'
p2984
aS'rcsEnabled = True'
p2985
aS'thrustPercentage = 100'
p2986
aS'currentShowToggles = False'
p2987
aS'enableYaw = True'
p2988
aS'enablePitch = True'
p2989
aS'enableRoll = True'
p2990
aS'enableX = True'
p2991
aS'enableY = True'
p2992
aS'enableZ = True'
p2993
aS'useThrottle = False'
p2994
aS'fullThrust = False'
p2995
aS'stagingEnabled = False'
p2996
aS'EVENTS'
p2997
a(lp2998
aS'ACTIONS'
p2999
a(lp3000
S'ToggleAction'
p3001
a(lp3002
S'actionGroup = None'
p3003
aaaS'UPGRADESAPPLIED'
p3004
a(lp3005
aaaS'PART'
p3006
a(lp3007
S'name = radPanelLg'
p3008
aS'cid = 4293573004'
p3009
aS'uid = 1718018451'
p3010
aS'mid = 3392428063'
p3011
aS'launchID = 1'
p3012
aS'parent = 12'
p3013
aS'position = -2.2684280872344971,-0.038475990295410156,1.0803341865539551E-07'
p3014
aS'rotation = -1.11758723E-07,-0.707106769,0,-0.707106888'
p3015
aS'mirror = 1,1,1'
p3016
aS'symMethod = Mirror'
p3017
aS'istg = -1'
p3018
aS'resPri = 0'
p3019
aS'dstg = 0'
p3020
aS'sqor = -1'
p3021
aS'sepI = -1'
p3022
aS'sidx = -1'
p3023
aS'attm = 1'
p3024
aS'sym = 10'
p3025
aS'srfN = srfAttach, 12'
p3026
aS'mass = 0.0500000007'
p3027
aS'shielded = False'
p3028
aS'temp = 303.94310135632264'
p3029
aS'tempExt = 303.78544925845171'
p3030
aS'tempExtUnexp = 4'
p3031
aS'expt = 0.5'
p3032
aS'state = 0'
p3033
aS'attached = True'
p3034
aS'autostrutMode = Off'
p3035
aS'rigidAttachment = False'
p3036
aS'flag = Squad/Flags/rings'
p3037
aS'rTrf = radPanelLg'
p3038
aS'modCost = 0'
p3039
aS'EVENTS'
p3040
a(lp3041
aS'ACTIONS'
p3042
a(lp3043
aS'PARTDATA'
p3044
a(lp3045
aS'MODULE'
p3046
a(lp3047
S'name = ModuleActiveRadiator'
p3048
aS'isEnabled = True'
p3049
aS'IsCooling = False'
p3050
aS'stagingEnabled = True'
p3051
aS'EVENTS'
p3052
a(lp3053
aS'ACTIONS'
p3054
a(lp3055
S'ToggleRadiatorAction'
p3056
a(lp3057
S'actionGroup = None'
p3058
aaS'ActivateAction'
p3059
a(lp3060
S'actionGroup = None'
p3061
aaS'ShutdownAction'
p3062
a(lp3063
S'actionGroup = None'
p3064
aaaS'UPGRADESAPPLIED'
p3065
a(lp3066
aaaS'PART'
p3067
a(lp3068
S'name = stackTriCoupler'
p3069
aS'cid = 4293804930'
p3070
aS'uid = 4018595887'
p3071
aS'mid = 3392428063'
p3072
aS'launchID = 1'
p3073
aS'parent = 0'
p3074
aS'position = 0,-1.4724197387695313,1.1920928955078125E-07'
p3075
aS'rotation = 0,0,0,1'
p3076
aS'mirror = 1,1,1'
p3077
aS'symMethod = Mirror'
p3078
aS'istg = -1'
p3079
aS'resPri = 0'
p3080
aS'dstg = 0'
p3081
aS'sqor = -1'
p3082
aS'sepI = -1'
p3083
aS'sidx = -1'
p3084
aS'attm = 0'
p3085
aS'srfN = , -1'
p3086
aS'attN = top, 0'
p3087
aS'attN = bottom01, 24'
p3088
aS'attN = bottom02, 22'
p3089
aS'attN = bottom03, 23'
p3090
aS'mass = 0.150000006'
p3091
aS'shielded = False'
p3092
aS'temp = 472.01670940600025'
p3093
aS'tempExt = 445.48749664010558'
p3094
aS'tempExtUnexp = 4'
p3095
aS'expt = 0.5'
p3096
aS'state = 0'
p3097
aS'attached = True'
p3098
aS'autostrutMode = Off'
p3099
aS'rigidAttachment = False'
p3100
aS'flag = Squad/Flags/rings'
p3101
aS'rTrf = stackTriCoupler'
p3102
aS'modCost = 0'
p3103
aS'EVENTS'
p3104
a(lp3105
aS'ACTIONS'
p3106
a(lp3107
aS'PARTDATA'
p3108
a(lp3109
aaS'PART'
p3110
a(lp3111
S'name = SSME'
p3112
aS'cid = 4293573806'
p3113
aS'uid = 1269377107'
p3114
aS'mid = 3392428063'
p3115
aS'launchID = 1'
p3116
aS'parent = 21'
p3117
aS'position = -0.62640047073364258,-1.9085702896118164,0.36165261268615723'
p3118
aS'rotation = 0,0,0,1'
p3119
aS'mirror = 1,1,1'
p3120
aS'symMethod = Radial'
p3121
aS'istg = 0'
p3122
aS'resPri = 0'
p3123
aS'dstg = 0'
p3124
aS'sqor = 0'
p3125
aS'sepI = -1'
p3126
aS'sidx = 0'
p3127
aS'attm = 0'
p3128
aS'sym = 23'
p3129
aS'sym = 24'
p3130
aS'srfN = , -1'
p3131
aS'attN = top, 21'
p3132
aS'attN = bottom, -1'
p3133
aS'mass = 4'
p3134
aS'shielded = False'
p3135
aS'temp = 491.53516118198098'
p3136
aS'tempExt = 467.85720065881253'
p3137
aS'tempExtUnexp = 4'
p3138
aS'expt = 0.5'
p3139
aS'state = 1'
p3140
aS'attached = True'
p3141
aS'autostrutMode = Off'
p3142
aS'rigidAttachment = False'
p3143
aS'flag = Squad/Flags/rings'
p3144
aS'rTrf = SSME'
p3145
aS'modCost = 0'
p3146
aS'EVENTS'
p3147
a(lp3148
aS'ACTIONS'
p3149
a(lp3150
aS'PARTDATA'
p3151
a(lp3152
aS'MODULE'
p3153
a(lp3154
S'name = ModuleEnginesFX'
p3155
aS'isEnabled = True'
p3156
aS'staged = True'
p3157
aS'flameout = False'
p3158
aS'EngineIgnited = True'
p3159
aS'engineShutdown = False'
p3160
aS'currentThrottle = 0'
p3161
aS'thrustPercentage = 100'
p3162
aS'manuallyOverridden = False'
p3163
aS'stagingEnabled = True'
p3164
aS'EVENTS'
p3165
a(lp3166
aS'ACTIONS'
p3167
a(lp3168
S'OnAction'
p3169
a(lp3170
S'actionGroup = None'
p3171
aaS'ShutdownAction'
p3172
a(lp3173
S'actionGroup = None'
p3174
aaS'ActivateAction'
p3175
a(lp3176
S'actionGroup = None'
p3177
aaaS'UPGRADESAPPLIED'
p3178
a(lp3179
aaS'MODULE'
p3180
a(lp3181
S'name = ModuleAlternator'
p3182
aS'isEnabled = True'
p3183
aS'stagingEnabled = True'
p3184
aS'EVENTS'
p3185
a(lp3186
aS'ACTIONS'
p3187
a(lp3188
aS'UPGRADESAPPLIED'
p3189
a(lp3190
aaS'MODULE'
p3191
a(lp3192
S'name = ModuleJettison'
p3193
aS'isEnabled = True'
p3194
aS'isJettisoned = True'
p3195
aS'shroudHideOverride = False'
p3196
aS'stagingEnabled = True'
p3197
aS'EVENTS'
p3198
a(lp3199
aS'ACTIONS'
p3200
a(lp3201
S'JettisonAction'
p3202
a(lp3203
S'actionGroup = None'
p3204
aaaS'UPGRADESAPPLIED'
p3205
a(lp3206
aaS'MODULE'
p3207
a(lp3208
S'name = ModuleGimbal'
p3209
aS'isEnabled = True'
p3210
aS'gimbalLock = False'
p3211
aS'gimbalLimiter = 100'
p3212
aS'currentShowToggles = False'
p3213
aS'enableYaw = True'
p3214
aS'enablePitch = True'
p3215
aS'enableRoll = True'
p3216
aS'gimbalActive = True'
p3217
aS'stagingEnabled = True'
p3218
aS'EVENTS'
p3219
a(lp3220
aS'ACTIONS'
p3221
a(lp3222
S'ToggleAction'
p3223
a(lp3224
S'actionGroup = None'
p3225
aaS'LockAction'
p3226
a(lp3227
S'actionGroup = None'
p3228
aaS'FreeAction'
p3229
a(lp3230
S'actionGroup = None'
p3231
aaS'TogglePitchAction'
p3232
a(lp3233
S'actionGroup = None'
p3234
aaS'ToggleYawAction'
p3235
a(lp3236
S'actionGroup = None'
p3237
aaS'ToggleRollAction'
p3238
a(lp3239
S'actionGroup = None'
p3240
aaaS'UPGRADESAPPLIED'
p3241
a(lp3242
aaS'MODULE'
p3243
a(lp3244
S'name = FXModuleAnimateThrottle'
p3245
aS'isEnabled = True'
p3246
aS'animState = 0.109338634'
p3247
aS'stagingEnabled = True'
p3248
aS'EVENTS'
p3249
a(lp3250
aS'ACTIONS'
p3251
a(lp3252
aS'UPGRADESAPPLIED'
p3253
a(lp3254
aaS'MODULE'
p3255
a(lp3256
S'name = ModuleTestSubject'
p3257
aS'isEnabled = True'
p3258
aS'stagingEnabled = True'
p3259
aS'EVENTS'
p3260
a(lp3261
aS'ACTIONS'
p3262
a(lp3263
aS'UPGRADESAPPLIED'
p3264
a(lp3265
aaS'MODULE'
p3266
a(lp3267
S'name = ModuleSurfaceFX'
p3268
aS'isEnabled = True'
p3269
aS'stagingEnabled = True'
p3270
aS'EVENTS'
p3271
a(lp3272
aS'ACTIONS'
p3273
a(lp3274
aS'UPGRADESAPPLIED'
p3275
a(lp3276
aaaS'PART'
p3277
a(lp3278
S'name = SSME'
p3279
aS'cid = 4293573700'
p3280
aS'uid = 3614796578'
p3281
aS'mid = 3392428063'
p3282
aS'launchID = 1'
p3283
aS'parent = 21'
p3284
aS'position = 0.62640058994293213,-1.9085702896118164,0.36165261268615723'
p3285
aS'rotation = 0,0.866025448,8.94069672E-08,0.49999997'
p3286
aS'mirror = 1,1,1'
p3287
aS'symMethod = Radial'
p3288
aS'istg = 0'
p3289
aS'resPri = 0'
p3290
aS'dstg = 0'
p3291
aS'sqor = 0'
p3292
aS'sepI = -1'
p3293
aS'sidx = 0'
p3294
aS'attm = 0'
p3295
aS'sym = 22'
p3296
aS'sym = 24'
p3297
aS'srfN = , -1'
p3298
aS'attN = top, 21'
p3299
aS'attN = bottom, -1'
p3300
aS'mass = 4'
p3301
aS'shielded = False'
p3302
aS'temp = 491.53523827157414'
p3303
aS'tempExt = 467.93513915027808'
p3304
aS'tempExtUnexp = 4'
p3305
aS'expt = 0.5'
p3306
aS'state = 1'
p3307
aS'attached = True'
p3308
aS'autostrutMode = Off'
p3309
aS'rigidAttachment = False'
p3310
aS'flag = Squad/Flags/rings'
p3311
aS'rTrf = SSME'
p3312
aS'modCost = 0'
p3313
aS'EVENTS'
p3314
a(lp3315
aS'ACTIONS'
p3316
a(lp3317
aS'PARTDATA'
p3318
a(lp3319
aS'MODULE'
p3320
a(lp3321
S'name = ModuleEnginesFX'
p3322
aS'isEnabled = True'
p3323
aS'staged = True'
p3324
aS'flameout = False'
p3325
aS'EngineIgnited = True'
p3326
aS'engineShutdown = False'
p3327
aS'currentThrottle = 0'
p3328
aS'thrustPercentage = 100'
p3329
aS'manuallyOverridden = False'
p3330
aS'stagingEnabled = True'
p3331
aS'EVENTS'
p3332
a(lp3333
aS'ACTIONS'
p3334
a(lp3335
S'OnAction'
p3336
a(lp3337
S'actionGroup = None'
p3338
aaS'ShutdownAction'
p3339
a(lp3340
S'actionGroup = None'
p3341
aaS'ActivateAction'
p3342
a(lp3343
S'actionGroup = None'
p3344
aaaS'UPGRADESAPPLIED'
p3345
a(lp3346
aaS'MODULE'
p3347
a(lp3348
S'name = ModuleAlternator'
p3349
aS'isEnabled = True'
p3350
aS'stagingEnabled = True'
p3351
aS'EVENTS'
p3352
a(lp3353
aS'ACTIONS'
p3354
a(lp3355
aS'UPGRADESAPPLIED'
p3356
a(lp3357
aaS'MODULE'
p3358
a(lp3359
S'name = ModuleJettison'
p3360
aS'isEnabled = True'
p3361
aS'isJettisoned = True'
p3362
aS'shroudHideOverride = False'
p3363
aS'stagingEnabled = True'
p3364
aS'EVENTS'
p3365
a(lp3366
aS'ACTIONS'
p3367
a(lp3368
S'JettisonAction'
p3369
a(lp3370
S'actionGroup = None'
p3371
aaaS'UPGRADESAPPLIED'
p3372
a(lp3373
aaS'MODULE'
p3374
a(lp3375
S'name = ModuleGimbal'
p3376
aS'isEnabled = True'
p3377
aS'gimbalLock = False'
p3378
aS'gimbalLimiter = 100'
p3379
aS'currentShowToggles = False'
p3380
aS'enableYaw = True'
p3381
aS'enablePitch = True'
p3382
aS'enableRoll = True'
p3383
aS'gimbalActive = True'
p3384
aS'stagingEnabled = True'
p3385
aS'EVENTS'
p3386
a(lp3387
aS'ACTIONS'
p3388
a(lp3389
S'ToggleAction'
p3390
a(lp3391
S'actionGroup = None'
p3392
aaS'LockAction'
p3393
a(lp3394
S'actionGroup = None'
p3395
aaS'FreeAction'
p3396
a(lp3397
S'actionGroup = None'
p3398
aaS'TogglePitchAction'
p3399
a(lp3400
S'actionGroup = None'
p3401
aaS'ToggleYawAction'
p3402
a(lp3403
S'actionGroup = None'
p3404
aaS'ToggleRollAction'
p3405
a(lp3406
S'actionGroup = None'
p3407
aaaS'UPGRADESAPPLIED'
p3408
a(lp3409
aaS'MODULE'
p3410
a(lp3411
S'name = FXModuleAnimateThrottle'
p3412
aS'isEnabled = True'
p3413
aS'animState = 0.109338634'
p3414
aS'stagingEnabled = True'
p3415
aS'EVENTS'
p3416
a(lp3417
aS'ACTIONS'
p3418
a(lp3419
aS'UPGRADESAPPLIED'
p3420
a(lp3421
aaS'MODULE'
p3422
a(lp3423
S'name = ModuleTestSubject'
p3424
aS'isEnabled = True'
p3425
aS'stagingEnabled = True'
p3426
aS'EVENTS'
p3427
a(lp3428
aS'ACTIONS'
p3429
a(lp3430
aS'UPGRADESAPPLIED'
p3431
a(lp3432
aaS'MODULE'
p3433
a(lp3434
S'name = ModuleSurfaceFX'
p3435
aS'isEnabled = True'
p3436
aS'stagingEnabled = True'
p3437
aS'EVENTS'
p3438
a(lp3439
aS'ACTIONS'
p3440
a(lp3441
aS'UPGRADESAPPLIED'
p3442
a(lp3443
aaaS'PART'
p3444
a(lp3445
S'name = SSME'
p3446
aS'cid = 4293573594'
p3447
aS'uid = 1184211899'
p3448
aS'mid = 3392428063'
p3449
aS'launchID = 1'
p3450
aS'parent = 21'
p3451
aS'position = 0,-1.9085702896118164,-0.7233046293258667'
p3452
aS'rotation = 0,0.866025388,8.94069672E-08,-0.500000119'
p3453
aS'mirror = 1,1,1'
p3454
aS'symMethod = Radial'
p3455
aS'istg = 0'
p3456
aS'resPri = 0'
p3457
aS'dstg = 0'
p3458
aS'sqor = 0'
p3459
aS'sepI = -1'
p3460
aS'sidx = 0'
p3461
aS'attm = 0'
p3462
aS'sym = 22'
p3463
aS'sym = 23'
p3464
aS'srfN = , -1'
p3465
aS'attN = top, 21'
p3466
aS'attN = bottom, -1'
p3467
aS'mass = 4'
p3468
aS'shielded = False'
p3469
aS'temp = 491.53676710158635'
p3470
aS'tempExt = 468.43820884373679'
p3471
aS'tempExtUnexp = 4'
p3472
aS'expt = 0.5'
p3473
aS'state = 1'
p3474
aS'attached = True'
p3475
aS'autostrutMode = Off'
p3476
aS'rigidAttachment = False'
p3477
aS'flag = Squad/Flags/rings'
p3478
aS'rTrf = SSME'
p3479
aS'modCost = 0'
p3480
aS'EVENTS'
p3481
a(lp3482
aS'ACTIONS'
p3483
a(lp3484
aS'PARTDATA'
p3485
a(lp3486
aS'MODULE'
p3487
a(lp3488
S'name = ModuleEnginesFX'
p3489
aS'isEnabled = True'
p3490
aS'staged = True'
p3491
aS'flameout = False'
p3492
aS'EngineIgnited = True'
p3493
aS'engineShutdown = False'
p3494
aS'currentThrottle = 0'
p3495
aS'thrustPercentage = 100'
p3496
aS'manuallyOverridden = False'
p3497
aS'stagingEnabled = True'
p3498
aS'EVENTS'
p3499
a(lp3500
aS'ACTIONS'
p3501
a(lp3502
S'OnAction'
p3503
a(lp3504
S'actionGroup = None'
p3505
aaS'ShutdownAction'
p3506
a(lp3507
S'actionGroup = None'
p3508
aaS'ActivateAction'
p3509
a(lp3510
S'actionGroup = None'
p3511
aaaS'UPGRADESAPPLIED'
p3512
a(lp3513
aaS'MODULE'
p3514
a(lp3515
S'name = ModuleAlternator'
p3516
aS'isEnabled = True'
p3517
aS'stagingEnabled = True'
p3518
aS'EVENTS'
p3519
a(lp3520
aS'ACTIONS'
p3521
a(lp3522
aS'UPGRADESAPPLIED'
p3523
a(lp3524
aaS'MODULE'
p3525
a(lp3526
S'name = ModuleJettison'
p3527
aS'isEnabled = True'
p3528
aS'isJettisoned = True'
p3529
aS'shroudHideOverride = False'
p3530
aS'stagingEnabled = True'
p3531
aS'EVENTS'
p3532
a(lp3533
aS'ACTIONS'
p3534
a(lp3535
S'JettisonAction'
p3536
a(lp3537
S'actionGroup = None'
p3538
aaaS'UPGRADESAPPLIED'
p3539
a(lp3540
aaS'MODULE'
p3541
a(lp3542
S'name = ModuleGimbal'
p3543
aS'isEnabled = True'
p3544
aS'gimbalLock = False'
p3545
aS'gimbalLimiter = 100'
p3546
aS'currentShowToggles = False'
p3547
aS'enableYaw = True'
p3548
aS'enablePitch = True'
p3549
aS'enableRoll = True'
p3550
aS'gimbalActive = True'
p3551
aS'stagingEnabled = True'
p3552
aS'EVENTS'
p3553
a(lp3554
aS'ACTIONS'
p3555
a(lp3556
S'ToggleAction'
p3557
a(lp3558
S'actionGroup = None'
p3559
aaS'LockAction'
p3560
a(lp3561
S'actionGroup = None'
p3562
aaS'FreeAction'
p3563
a(lp3564
S'actionGroup = None'
p3565
aaS'TogglePitchAction'
p3566
a(lp3567
S'actionGroup = None'
p3568
aaS'ToggleYawAction'
p3569
a(lp3570
S'actionGroup = None'
p3571
aaS'ToggleRollAction'
p3572
a(lp3573
S'actionGroup = None'
p3574
aaaS'UPGRADESAPPLIED'
p3575
a(lp3576
aaS'MODULE'
p3577
a(lp3578
S'name = FXModuleAnimateThrottle'
p3579
aS'isEnabled = True'
p3580
aS'animState = 0.109338634'
p3581
aS'stagingEnabled = True'
p3582
aS'EVENTS'
p3583
a(lp3584
aS'ACTIONS'
p3585
a(lp3586
aS'UPGRADESAPPLIED'
p3587
a(lp3588
aaS'MODULE'
p3589
a(lp3590
S'name = ModuleTestSubject'
p3591
aS'isEnabled = True'
p3592
aS'stagingEnabled = True'
p3593
aS'EVENTS'
p3594
a(lp3595
aS'ACTIONS'
p3596
a(lp3597
aS'UPGRADESAPPLIED'
p3598
a(lp3599
aaS'MODULE'
p3600
a(lp3601
S'name = ModuleSurfaceFX'
p3602
aS'isEnabled = True'
p3603
aS'stagingEnabled = True'
p3604
aS'EVENTS'
p3605
a(lp3606
aS'ACTIONS'
p3607
a(lp3608
aS'UPGRADESAPPLIED'
p3609
a(lp3610
aaaS'PART'
p3611
a(lp3612
S'name = adapterSize2-Size1'
p3613
aS'cid = 4293749690'
p3614
aS'uid = 142585586'
p3615
aS'mid = 3392428063'
p3616
aS'launchID = 1'
p3617
aS'parent = 0'
p3618
aS'position = 0,2.1874990463256836,0'
p3619
aS'rotation = 1,0,0,0'
p3620
aS'mirror = 1,1,1'
p3621
aS'symMethod = Mirror'
p3622
aS'istg = -1'
p3623
aS'resPri = 0'
p3624
aS'dstg = 0'
p3625
aS'sqor = -1'
p3626
aS'sepI = -1'
p3627
aS'sidx = -1'
p3628
aS'attm = 0'
p3629
aS'srfN = srfAttach, -1'
p3630
aS'attN = top, 0'
p3631
aS'attN = bottom, 26'
p3632
aS'mass = 0.569999993'
p3633
aS'shielded = False'
p3634
aS'temp = 365.37908441089257'
p3635
aS'tempExt = 364.85080746577523'
p3636
aS'tempExtUnexp = 4'
p3637
aS'expt = 0.5'
p3638
aS'state = 0'
p3639
aS'attached = True'
p3640
aS'autostrutMode = Off'
p3641
aS'rigidAttachment = False'
p3642
aS'flag = Squad/Flags/rings'
p3643
aS'rTrf = adapterSize2-Size1'
p3644
aS'modCost = 0'
p3645
aS'EVENTS'
p3646
a(lp3647
aS'ACTIONS'
p3648
a(lp3649
aS'PARTDATA'
p3650
a(lp3651
aS'RESOURCE'
p3652
a(lp3653
S'name = LiquidFuel'
p3654
aS'amount = 259.14174212820808'
p3655
aS'maxAmount = 360'
p3656
aS'flowState = True'
p3657
aS'isTweakable = True'
p3658
aS'hideFlow = False'
p3659
aS'isVisible = True'
p3660
aS'flowMode = Both'
p3661
aaS'RESOURCE'
p3662
a(lp3663
S'name = Oxidizer'
p3664
aS'amount = 312.1631896265755'
p3665
aS'maxAmount = 440'
p3666
aS'flowState = True'
p3667
aS'isTweakable = True'
p3668
aS'hideFlow = False'
p3669
aS'isVisible = True'
p3670
aS'flowMode = Both'
p3671
aaaS'PART'
p3672
a(lp3673
S'name = adapterLargeSmallQuad'
p3674
aS'cid = 4293572884'
p3675
aS'uid = 2527268442'
p3676
aS'mid = 3392428063'
p3677
aS'launchID = 1'
p3678
aS'parent = 25'
p3679
aS'position = 0,3.4374990463256836,0'
p3680
aS'rotation = -1,0,0,0'
p3681
aS'mirror = 1,1,1'
p3682
aS'symMethod = Mirror'
p3683
aS'istg = -1'
p3684
aS'resPri = 0'
p3685
aS'dstg = 0'
p3686
aS'sqor = -1'
p3687
aS'sepI = -1'
p3688
aS'sidx = -1'
p3689
aS'attm = 0'
p3690
aS'srfN = , -1'
p3691
aS'attN = top, 25'
p3692
aS'attN = bottom01, 31'
p3693
aS'attN = bottom02, 33'
p3694
aS'attN = bottom03, 29'
p3695
aS'attN = bottom04, 27'
p3696
aS'mass = 0.200000003'
p3697
aS'shielded = False'
p3698
aS'temp = 349.63640779004646'
p3699
aS'tempExt = 341.48433506568824'
p3700
aS'tempExtUnexp = 4'
p3701
aS'expt = 0.5'
p3702
aS'state = 0'
p3703
aS'attached = True'
p3704
aS'autostrutMode = Off'
p3705
aS'rigidAttachment = False'
p3706
aS'flag = Squad/Flags/rings'
p3707
aS'rTrf = adapterLargeSmallQuad'
p3708
aS'modCost = 0'
p3709
aS'EVENTS'
p3710
a(lp3711
aS'ACTIONS'
p3712
a(lp3713
aS'PARTDATA'
p3714
a(lp3715
aaS'PART'
p3716
a(lp3717
S'name = fuelTank.long'
p3718
aS'cid = 4293572856'
p3719
aS'uid = 3947124053'
p3720
aS'mid = 3392428063'
p3721
aS'launchID = 1'
p3722
aS'parent = 26'
p3723
aS'position = -0.625,6.0624990463256836,0.625'
p3724
aS'rotation = -1,0,0,0'
p3725
aS'mirror = 1,1,1'
p3726
aS'symMethod = Radial'
p3727
aS'istg = -1'
p3728
aS'resPri = 0'
p3729
aS'dstg = 0'
p3730
aS'sqor = -1'
p3731
aS'sepI = -1'
p3732
aS'sidx = -1'
p3733
aS'attm = 0'
p3734
aS'sym = 29'
p3735
aS'sym = 31'
p3736
aS'sym = 33'
p3737
aS'srfN = srfAttach, -1'
p3738
aS'attN = top, 26'
p3739
aS'attN = bottom, -1'
p3740
aS'mass = 0.5'
p3741
aS'shielded = False'
p3742
aS'temp = 331.48767608239865'
p3743
aS'tempExt = 334.91375183335748'
p3744
aS'tempExtUnexp = 4'
p3745
aS'expt = 0.5'
p3746
aS'state = 0'
p3747
aS'attached = True'
p3748
aS'autostrutMode = Off'
p3749
aS'rigidAttachment = False'
p3750
aS'flag = Squad/Flags/rings'
p3751
aS'rTrf = fuelTank.long'
p3752
aS'modCost = 0'
p3753
aS'EVENTS'
p3754
a(lp3755
aS'ACTIONS'
p3756
a(lp3757
aS'PARTDATA'
p3758
a(lp3759
aS'RESOURCE'
p3760
a(lp3761
S'name = LiquidFuel'
p3762
aS'amount = 259.14174212820808'
p3763
aS'maxAmount = 360'
p3764
aS'flowState = True'
p3765
aS'isTweakable = True'
p3766
aS'hideFlow = False'
p3767
aS'isVisible = True'
p3768
aS'flowMode = Both'
p3769
aaS'RESOURCE'
p3770
a(lp3771
S'name = Oxidizer'
p3772
aS'amount = 312.1631896265755'
p3773
aS'maxAmount = 440'
p3774
aS'flowState = True'
p3775
aS'isTweakable = True'
p3776
aS'hideFlow = False'
p3777
aS'isVisible = True'
p3778
aS'flowMode = Both'
p3779
aaaS'PART'
p3780
a(lp3781
S'name = strutConnector'
p3782
aS'cid = 4293572826'
p3783
aS'uid = 647284218'
p3784
aS'mid = 3392428063'
p3785
aS'launchID = 1'
p3786
aS'parent = 27'
p3787
aS'position = -1.0763671398162842,7.7431821823120117,1.0763671398162842'
p3788
aS'rotation = -0.923879564,4.76898663E-08,0.382683426,-1.97537879E-08'
p3789
aS'mirror = 1,1,1'
p3790
aS'symMethod = Radial'
p3791
aS'istg = -1'
p3792
aS'resPri = 0'
p3793
aS'dstg = 0'
p3794
aS'sqor = -1'
p3795
aS'sepI = -1'
p3796
aS'sidx = -1'
p3797
aS'attm = 1'
p3798
aS'sym = 30'
p3799
aS'sym = 32'
p3800
aS'sym = 42'
p3801
aS'srfN = srfAttach, 27'
p3802
aS'mass = 0.0500000007'
p3803
aS'shielded = False'
p3804
aS'temp = 331.40414285931035'
p3805
aS'tempExt = 333.09774354390368'
p3806
aS'tempExtUnexp = 4'
p3807
aS'expt = 0'
p3808
aS'state = 0'
p3809
aS'attached = True'
p3810
aS'autostrutMode = Off'
p3811
aS'rigidAttachment = False'
p3812
aS'flag = Squad/Flags/rings'
p3813
aS'rTrf = strutConnector'
p3814
aS'modCost = 0'
p3815
aS'EVENTS'
p3816
a(lp3817
aS'ACTIONS'
p3818
a(lp3819
aS'PARTDATA'
p3820
a(lp3821
S'tgt = 4293708086'
p3822
aS'pos = 0.0568457618,-0.219316334,0.00254920986'
p3823
aS'rot = -1.78151467E-08,4.64430883E-07,0.707107127,0.707106829'
p3824
aS'dir = -0.250907719,-0.967945457,-0.0112750046'
p3825
aaS'MODULE'
p3826
a(lp3827
S'name = CModuleLinkedMesh'
p3828
aS'isEnabled = True'
p3829
aS'stagingEnabled = True'
p3830
aS'EVENTS'
p3831
a(lp3832
aS'ACTIONS'
p3833
a(lp3834
aS'UPGRADESAPPLIED'
p3835
a(lp3836
aaS'MODULE'
p3837
a(lp3838
S'name = CModuleStrut'
p3839
aS'isEnabled = True'
p3840
aS'stagingEnabled = True'
p3841
aS'EVENTS'
p3842
a(lp3843
aS'ACTIONS'
p3844
a(lp3845
aS'UPGRADESAPPLIED'
p3846
a(lp3847
aaaS'PART'
p3848
a(lp3849
S'name = fuelTank.long'
p3850
aS'cid = 4293572764'
p3851
aS'uid = 324723862'
p3852
aS'mid = 3392428063'
p3853
aS'launchID = 1'
p3854
aS'parent = 26'
p3855
aS'position = -0.625,6.0624990463256836,-0.625'
p3856
aS'rotation = -0.707106829,0,-0.707106829,0'
p3857
aS'mirror = 1,1,1'
p3858
aS'symMethod = Radial'
p3859
aS'istg = -1'
p3860
aS'resPri = 0'
p3861
aS'dstg = 0'
p3862
aS'sqor = -1'
p3863
aS'sepI = -1'
p3864
aS'sidx = -1'
p3865
aS'attm = 0'
p3866
aS'sym = 27'
p3867
aS'sym = 31'
p3868
aS'sym = 33'
p3869
aS'srfN = srfAttach, -1'
p3870
aS'attN = top, 26'
p3871
aS'attN = bottom, -1'
p3872
aS'mass = 0.5'
p3873
aS'shielded = False'
p3874
aS'temp = 331.68059792683567'
p3875
aS'tempExt = 335.0248678372019'
p3876
aS'tempExtUnexp = 4'
p3877
aS'expt = 0.5'
p3878
aS'state = 0'
p3879
aS'attached = True'
p3880
aS'autostrutMode = Off'
p3881
aS'rigidAttachment = False'
p3882
aS'flag = Squad/Flags/rings'
p3883
aS'rTrf = fuelTank.long'
p3884
aS'modCost = 0'
p3885
aS'EVENTS'
p3886
a(lp3887
aS'ACTIONS'
p3888
a(lp3889
aS'PARTDATA'
p3890
a(lp3891
aS'RESOURCE'
p3892
a(lp3893
S'name = LiquidFuel'
p3894
aS'amount = 259.14174212820808'
p3895
aS'maxAmount = 360'
p3896
aS'flowState = True'
p3897
aS'isTweakable = True'
p3898
aS'hideFlow = False'
p3899
aS'isVisible = True'
p3900
aS'flowMode = Both'
p3901
aaS'RESOURCE'
p3902
a(lp3903
S'name = Oxidizer'
p3904
aS'amount = 312.1631896265755'
p3905
aS'maxAmount = 440'
p3906
aS'flowState = True'
p3907
aS'isTweakable = True'
p3908
aS'hideFlow = False'
p3909
aS'isVisible = True'
p3910
aS'flowMode = Both'
p3911
aaaS'PART'
p3912
a(lp3913
S'name = strutConnector'
p3914
aS'cid = 4293572734'
p3915
aS'uid = 2277557944'
p3916
aS'mid = 3392428063'
p3917
aS'launchID = 1'
p3918
aS'parent = 29'
p3919
aS'position = -1.0763677358627319,7.7431821823120117,-1.0763677358627319'
p3920
aS'rotation = -0.923879623,4.76898663E-08,-0.382683486,1.97537915E-08'
p3921
aS'mirror = 1,1,1'
p3922
aS'symMethod = Radial'
p3923
aS'istg = -1'
p3924
aS'resPri = 0'
p3925
aS'dstg = 0'
p3926
aS'sqor = -1'
p3927
aS'sepI = -1'
p3928
aS'sidx = -1'
p3929
aS'attm = 1'
p3930
aS'sym = 28'
p3931
aS'sym = 32'
p3932
aS'sym = 42'
p3933
aS'srfN = srfAttach, 29'
p3934
aS'mass = 0.0500000007'
p3935
aS'shielded = False'
p3936
aS'temp = 331.59778688988939'
p3937
aS'tempExt = 333.25070478117004'
p3938
aS'tempExtUnexp = 4'
p3939
aS'expt = 0'
p3940
aS'state = 0'
p3941
aS'attached = True'
p3942
aS'autostrutMode = Off'
p3943
aS'rigidAttachment = False'
p3944
aS'flag = Squad/Flags/rings'
p3945
aS'rTrf = strutConnector'
p3946
aS'modCost = 0'
p3947
aS'EVENTS'
p3948
a(lp3949
aS'ACTIONS'
p3950
a(lp3951
aS'PARTDATA'
p3952
a(lp3953
S'tgt = 4293708086'
p3954
aS'pos = 0.0568491742,-0.219316602,0.00254870253'
p3955
aS'rot = 3.64305919E-09,4.85889132E-07,0.707106948,0.707107425'
p3956
aS'dir = 0.0112748966,-0.967945457,-0.25090766'
p3957
aaS'MODULE'
p3958
a(lp3959
S'name = CModuleLinkedMesh'
p3960
aS'isEnabled = True'
p3961
aS'stagingEnabled = True'
p3962
aS'EVENTS'
p3963
a(lp3964
aS'ACTIONS'
p3965
a(lp3966
aS'UPGRADESAPPLIED'
p3967
a(lp3968
aaS'MODULE'
p3969
a(lp3970
S'name = CModuleStrut'
p3971
aS'isEnabled = True'
p3972
aS'stagingEnabled = True'
p3973
aS'EVENTS'
p3974
a(lp3975
aS'ACTIONS'
p3976
a(lp3977
aS'UPGRADESAPPLIED'
p3978
a(lp3979
aaaS'PART'
p3980
a(lp3981
S'name = fuelTank.long'
p3982
aS'cid = 4293572672'
p3983
aS'uid = 79892061'
p3984
aS'mid = 3392428063'
p3985
aS'launchID = 1'
p3986
aS'parent = 26'
p3987
aS'position = 0.625,6.0624990463256836,-0.625'
p3988
aS'rotation = 4.37113883E-08,0,-1,0'
p3989
aS'mirror = 1,1,1'
p3990
aS'symMethod = Radial'
p3991
aS'istg = -1'
p3992
aS'resPri = 0'
p3993
aS'dstg = 0'
p3994
aS'sqor = -1'
p3995
aS'sepI = -1'
p3996
aS'sidx = -1'
p3997
aS'attm = 0'
p3998
aS'sym = 27'
p3999
aS'sym = 29'
p4000
aS'sym = 33'
p4001
aS'srfN = srfAttach, -1'
p4002
aS'attN = top, 26'
p4003
aS'attN = bottom, -1'
p4004
aS'mass = 0.5'
p4005
aS'shielded = False'
p4006
aS'temp = 331.83456113149833'
p4007
aS'tempExt = 335.11354441191185'
p4008
aS'tempExtUnexp = 4'
p4009
aS'expt = 0.5'
p4010
aS'state = 0'
p4011
aS'attached = True'
p4012
aS'autostrutMode = Off'
p4013
aS'rigidAttachment = False'
p4014
aS'flag = Squad/Flags/rings'
p4015
aS'rTrf = fuelTank.long'
p4016
aS'modCost = 0'
p4017
aS'EVENTS'
p4018
a(lp4019
aS'ACTIONS'
p4020
a(lp4021
aS'PARTDATA'
p4022
a(lp4023
aS'RESOURCE'
p4024
a(lp4025
S'name = LiquidFuel'
p4026
aS'amount = 259.14174212820808'
p4027
aS'maxAmount = 360'
p4028
aS'flowState = True'
p4029
aS'isTweakable = True'
p4030
aS'hideFlow = False'
p4031
aS'isVisible = True'
p4032
aS'flowMode = Both'
p4033
aaS'RESOURCE'
p4034
a(lp4035
S'name = Oxidizer'
p4036
aS'amount = 312.1631896265755'
p4037
aS'maxAmount = 440'
p4038
aS'flowState = True'
p4039
aS'isTweakable = True'
p4040
aS'hideFlow = False'
p4041
aS'isVisible = True'
p4042
aS'flowMode = Both'
p4043
aaaS'PART'
p4044
a(lp4045
S'name = strutConnector'
p4046
aS'cid = 4293572642'
p4047
aS'uid = 4042904716'
p4048
aS'mid = 3392428063'
p4049
aS'launchID = 1'
p4050
aS'parent = 31'
p4051
aS'position = 1.0763671398162842,7.7431821823120117,-1.0763671398162842'
p4052
aS'rotation = -0.382683396,1.97537862E-08,-0.923879564,4.76898663E-08'
p4053
aS'mirror = 1,1,1'
p4054
aS'symMethod = Radial'
p4055
aS'istg = -1'
p4056
aS'resPri = 0'
p4057
aS'dstg = 0'
p4058
aS'sqor = -1'
p4059
aS'sepI = -1'
p4060
aS'sidx = -1'
p4061
aS'attm = 1'
p4062
aS'sym = 28'
p4063
aS'sym = 30'
p4064
aS'sym = 42'
p4065
aS'srfN = srfAttach, 31'
p4066
aS'mass = 0.0500000007'
p4067
aS'shielded = False'
p4068
aS'temp = 331.7523264640509'
p4069
aS'tempExt = 333.37277668671101'
p4070
aS'tempExtUnexp = 4'
p4071
aS'expt = 0'
p4072
aS'state = 0'
p4073
aS'attached = True'
p4074
aS'autostrutMode = Off'
p4075
aS'rigidAttachment = False'
p4076
aS'flag = Squad/Flags/rings'
p4077
aS'rTrf = strutConnector'
p4078
aS'modCost = 0'
p4079
aS'EVENTS'
p4080
a(lp4081
aS'ACTIONS'
p4082
a(lp4083
aS'PARTDATA'
p4084
a(lp4085
S'tgt = 4293708086'
p4086
aS'pos = 0.056852676,-0.219316483,0.0025578097'
p4087
aS'rot = 0,-4.7434051E-07,0.70710659,0.707107067'
p4088
aS'dir = 0.0112748668,-0.967945457,0.25090763'
p4089
aaS'MODULE'
p4090
a(lp4091
S'name = CModuleLinkedMesh'
p4092
aS'isEnabled = True'
p4093
aS'stagingEnabled = True'
p4094
aS'EVENTS'
p4095
a(lp4096
aS'ACTIONS'
p4097
a(lp4098
aS'UPGRADESAPPLIED'
p4099
a(lp4100
aaS'MODULE'
p4101
a(lp4102
S'name = CModuleStrut'
p4103
aS'isEnabled = True'
p4104
aS'stagingEnabled = True'
p4105
aS'EVENTS'
p4106
a(lp4107
aS'ACTIONS'
p4108
a(lp4109
aS'UPGRADESAPPLIED'
p4110
a(lp4111
aaaS'PART'
p4112
a(lp4113
S'name = fuelTank.long'
p4114
aS'cid = 4293572580'
p4115
aS'uid = 952210065'
p4116
aS'mid = 3392428063'
p4117
aS'launchID = 1'
p4118
aS'parent = 26'
p4119
aS'position = 0.625,6.0624990463256836,0.625'
p4120
aS'rotation = 0.707106829,0,-0.707106829,0'
p4121
aS'mirror = 1,1,1'
p4122
aS'symMethod = Radial'
p4123
aS'istg = -1'
p4124
aS'resPri = 0'
p4125
aS'dstg = 0'
p4126
aS'sqor = -1'
p4127
aS'sepI = -1'
p4128
aS'sidx = -1'
p4129
aS'attm = 0'
p4130
aS'sym = 27'
p4131
aS'sym = 29'
p4132
aS'sym = 31'
p4133
aS'srfN = srfAttach, -1'
p4134
aS'attN = top, 26'
p4135
aS'attN = bottom, 34'
p4136
aS'mass = 0.5'
p4137
aS'shielded = False'
p4138
aS'temp = 328.81325743575434'
p4139
aS'tempExt = 331.39129732781413'
p4140
aS'tempExtUnexp = 4'
p4141
aS'expt = 0.5'
p4142
aS'state = 0'
p4143
aS'attached = True'
p4144
aS'autostrutMode = Off'
p4145
aS'rigidAttachment = False'
p4146
aS'flag = Squad/Flags/rings'
p4147
aS'rTrf = fuelTank.long'
p4148
aS'modCost = 0'
p4149
aS'EVENTS'
p4150
a(lp4151
aS'ACTIONS'
p4152
a(lp4153
aS'PARTDATA'
p4154
a(lp4155
aS'RESOURCE'
p4156
a(lp4157
S'name = LiquidFuel'
p4158
aS'amount = 259.14174212820808'
p4159
aS'maxAmount = 360'
p4160
aS'flowState = True'
p4161
aS'isTweakable = True'
p4162
aS'hideFlow = False'
p4163
aS'isVisible = True'
p4164
aS'flowMode = Both'
p4165
aaS'RESOURCE'
p4166
a(lp4167
S'name = Oxidizer'
p4168
aS'amount = 312.1631896265755'
p4169
aS'maxAmount = 440'
p4170
aS'flowState = True'
p4171
aS'isTweakable = True'
p4172
aS'hideFlow = False'
p4173
aS'isVisible = True'
p4174
aS'flowMode = Both'
p4175
aaaS'PART'
p4176
a(lp4177
S'name = adapterLargeSmallQuad'
p4178
aS'cid = 4293572550'
p4179
aS'uid = 364717091'
p4180
aS'mid = 3392428063'
p4181
aS'launchID = 1'
p4182
aS'parent = 33'
p4183
aS'position = -4.76837158203125E-07,8.6999998092651367,-5.3644180297851563E-07'
p4184
aS'rotation = 0,0,0,1.00000012'
p4185
aS'mirror = 1,1,1'
p4186
aS'symMethod = Radial'
p4187
aS'istg = -1'
p4188
aS'resPri = 0'
p4189
aS'dstg = 0'
p4190
aS'sqor = -1'
p4191
aS'sepI = -1'
p4192
aS'sidx = -1'
p4193
aS'attm = 0'
p4194
aS'srfN = , -1'
p4195
aS'attN = top, 35'
p4196
aS'attN = bottom01, 33'
p4197
aS'attN = bottom02, -1'
p4198
aS'attN = bottom03, -1'
p4199
aS'attN = bottom04, -1'
p4200
aS'mass = 0.200000003'
p4201
aS'shielded = False'
p4202
aS'temp = 326.77905855546084'
p4203
aS'tempExt = 327.25646760416782'
p4204
aS'tempExtUnexp = 4'
p4205
aS'expt = 0.5'
p4206
aS'state = 0'
p4207
aS'attached = True'
p4208
aS'autostrutMode = Off'
p4209
aS'rigidAttachment = False'
p4210
aS'flag = Squad/Flags/rings'
p4211
aS'rTrf = adapterLargeSmallQuad'
p4212
aS'modCost = 0'
p4213
aS'EVENTS'
p4214
a(lp4215
aS'ACTIONS'
p4216
a(lp4217
aS'PARTDATA'
p4218
a(lp4219
aaS'PART'
p4220
a(lp4221
S'name = adapterSize2-Size1'
p4222
aS'cid = 4293572522'
p4223
aS'uid = 3531910181'
p4224
aS'mid = 3392428063'
p4225
aS'launchID = 1'
p4226
aS'parent = 34'
p4227
aS'position = -6.5565109252929688E-07,9.9499998092651367,-7.152557373046875E-07'
p4228
aS'rotation = 0,0,0,1.00000012'
p4229
aS'mirror = 1,1,1'
p4230
aS'symMethod = Radial'
p4231
aS'istg = -1'
p4232
aS'resPri = 0'
p4233
aS'dstg = 0'
p4234
aS'sqor = -1'
p4235
aS'sepI = -1'
p4236
aS'sidx = -1'
p4237
aS'attm = 0'
p4238
aS'srfN = srfAttach, -1'
p4239
aS'attN = top, 36'
p4240
aS'attN = bottom, 34'
p4241
aS'mass = 0.569999993'
p4242
aS'shielded = False'
p4243
aS'temp = 324.34777090553769'
p4244
aS'tempExt = 324.40255593728534'
p4245
aS'tempExtUnexp = 4'
p4246
aS'expt = 0.5'
p4247
aS'state = 0'
p4248
aS'attached = True'
p4249
aS'autostrutMode = Off'
p4250
aS'rigidAttachment = False'
p4251
aS'flag = Squad/Flags/rings'
p4252
aS'rTrf = adapterSize2-Size1'
p4253
aS'modCost = 0'
p4254
aS'EVENTS'
p4255
a(lp4256
aS'ACTIONS'
p4257
a(lp4258
aS'PARTDATA'
p4259
a(lp4260
aS'RESOURCE'
p4261
a(lp4262
S'name = LiquidFuel'
p4263
aS'amount = 259.14174212820808'
p4264
aS'maxAmount = 360'
p4265
aS'flowState = True'
p4266
aS'isTweakable = True'
p4267
aS'hideFlow = False'
p4268
aS'isVisible = True'
p4269
aS'flowMode = Both'
p4270
aaS'RESOURCE'
p4271
a(lp4272
S'name = Oxidizer'
p4273
aS'amount = 312.1631896265755'
p4274
aS'maxAmount = 440'
p4275
aS'flowState = True'
p4276
aS'isTweakable = True'
p4277
aS'hideFlow = False'
p4278
aS'isVisible = True'
p4279
aS'flowMode = Both'
p4280
aaaS'PART'
p4281
a(lp4282
S'name = noseConeAdapter'
p4283
aS'cid = 4293572490'
p4284
aS'uid = 3388656840'
p4285
aS'mid = 3392428063'
p4286
aS'launchID = 1'
p4287
aS'parent = 35'
p4288
aS'position = -8.3446502685546875E-07,11.950005531311035,-8.9406967163085938E-07'
p4289
aS'rotation = 0,0,0,1.00000012'
p4290
aS'mirror = 1,1,1'
p4291
aS'symMethod = Radial'
p4292
aS'istg = -1'
p4293
aS'resPri = 0'
p4294
aS'dstg = 0'
p4295
aS'sqor = -1'
p4296
aS'sepI = -1'
p4297
aS'sidx = -1'
p4298
aS'attm = 0'
p4299
aS'srfN = srfAttach, -1'
p4300
aS'attN = top, 37'
p4301
aS'attN = bottom01, 35'
p4302
aS'mass = 0.100000001'
p4303
aS'shielded = False'
p4304
aS'temp = 322.84574191126444'
p4305
aS'tempExt = 322.87988481039628'
p4306
aS'tempExtUnexp = 4'
p4307
aS'expt = 0.5'
p4308
aS'state = 0'
p4309
aS'attached = True'
p4310
aS'autostrutMode = Off'
p4311
aS'rigidAttachment = False'
p4312
aS'flag = Squad/Flags/rings'
p4313
aS'rTrf = noseConeAdapter'
p4314
aS'modCost = 0'
p4315
aS'EVENTS'
p4316
a(lp4317
aS'ACTIONS'
p4318
a(lp4319
aS'PARTDATA'
p4320
a(lp4321
aS'MODULE'
p4322
a(lp4323
S'name = ModuleAnimateHeat'
p4324
aS'isEnabled = True'
p4325
aS'stagingEnabled = True'
p4326
aS'EVENTS'
p4327
a(lp4328
aS'ACTIONS'
p4329
a(lp4330
aS'UPGRADESAPPLIED'
p4331
a(lp4332
aaS'RESOURCE'
p4333
a(lp4334
S'name = LiquidFuel'
p4335
aS'amount = 57.587053806262155'
p4336
aS'maxAmount = 80'
p4337
aS'flowState = True'
p4338
aS'isTweakable = True'
p4339
aS'hideFlow = False'
p4340
aS'isVisible = True'
p4341
aS'flowMode = Both'
p4342
aaaS'PART'
p4343
a(lp4344
S'name = structuralIBeam2'
p4345
aS'cid = 4293572454'
p4346
aS'uid = 2122223810'
p4347
aS'mid = 3392428063'
p4348
aS'launchID = 1'
p4349
aS'parent = 36'
p4350
aS'position = -1.0132789611816406E-06,14.673281669616699,-1.0728836059570313E-06'
p4351
aS'rotation = -1.00000012,0,0,0'
p4352
aS'mirror = 1,1,1'
p4353
aS'symMethod = Radial'
p4354
aS'istg = -1'
p4355
aS'resPri = 0'
p4356
aS'dstg = 0'
p4357
aS'sqor = -1'
p4358
aS'sepI = -1'
p4359
aS'sidx = -1'
p4360
aS'attm = 0'
p4361
aS'srfN = srfAttach, -1'
p4362
aS'attN = top, 36'
p4363
aS'attN = bottom, -1'
p4364
aS'mass = 0.375'
p4365
aS'shielded = False'
p4366
aS'temp = 320.39042548753832'
p4367
aS'tempExt = 321.3369878455801'
p4368
aS'tempExtUnexp = 4'
p4369
aS'expt = 0.5'
p4370
aS'state = 0'
p4371
aS'attached = True'
p4372
aS'autostrutMode = Off'
p4373
aS'rigidAttachment = False'
p4374
aS'flag = Squad/Flags/rings'
p4375
aS'rTrf = structuralIBeam2'
p4376
aS'modCost = 0'
p4377
aS'EVENTS'
p4378
a(lp4379
aS'ACTIONS'
p4380
a(lp4381
aS'PARTDATA'
p4382
a(lp4383
aaS'PART'
p4384
a(lp4385
S'name = vernierEngine'
p4386
aS'cid = 4293572370'
p4387
aS'uid = 272859747'
p4388
aS'mid = 3392428063'
p4389
aS'launchID = 1'
p4390
aS'parent = 36'
p4391
aS'position = 0.2433723509311676,12.901083946228027,-0.24337458610534668'
p4392
aS'rotation = 0.108132556,-0.917529345,-0.0447901227,0.380054325'
p4393
aS'mirror = 1,1,1'
p4394
aS'symMethod = Radial'
p4395
aS'istg = -1'
p4396
aS'resPri = 0'
p4397
aS'dstg = 0'
p4398
aS'sqor = -1'
p4399
aS'sepI = -1'
p4400
aS'sidx = -1'
p4401
aS'attm = 1'
p4402
aS'sym = 39'
p4403
aS'sym = 40'
p4404
aS'sym = 41'
p4405
aS'srfN = srfAttach, 36'
p4406
aS'mass = 0.0799999982'
p4407
aS'shielded = False'
p4408
aS'temp = 321.60151208546813'
p4409
aS'tempExt = 321.74981034026962'
p4410
aS'tempExtUnexp = 4'
p4411
aS'expt = 0.5'
p4412
aS'state = 0'
p4413
aS'attached = True'
p4414
aS'autostrutMode = Off'
p4415
aS'rigidAttachment = False'
p4416
aS'flag = Squad/Flags/rings'
p4417
aS'rTrf = vernierEngine'
p4418
aS'modCost = 0'
p4419
aS'EVENTS'
p4420
a(lp4421
aS'ACTIONS'
p4422
a(lp4423
aS'PARTDATA'
p4424
a(lp4425
aS'MODULE'
p4426
a(lp4427
S'name = ModuleRCSFX'
p4428
aS'isEnabled = True'
p4429
aS'rcsEnabled = True'
p4430
aS'thrustPercentage = 100'
p4431
aS'currentShowToggles = False'
p4432
aS'enableYaw = True'
p4433
aS'enablePitch = True'
p4434
aS'enableRoll = True'
p4435
aS'enableX = True'
p4436
aS'enableY = True'
p4437
aS'enableZ = True'
p4438
aS'useThrottle = False'
p4439
aS'fullThrust = False'
p4440
aS'stagingEnabled = False'
p4441
aS'EVENTS'
p4442
a(lp4443
aS'ACTIONS'
p4444
a(lp4445
S'ToggleAction'
p4446
a(lp4447
S'actionGroup = None'
p4448
aaaS'UPGRADESAPPLIED'
p4449
a(lp4450
aaaS'PART'
p4451
a(lp4452
S'name = vernierEngine'
p4453
aS'cid = 4293572338'
p4454
aS'uid = 77692591'
p4455
aS'mid = 3392428063'
p4456
aS'launchID = 1'
p4457
aS'parent = 36'
p4458
aS'position = -0.24337506294250488,12.901083946228027,-0.24337506294250488'
p4459
aS'rotation = 0.0447898656,-0.380052239,-0.108132675,0.917530298'
p4460
aS'mirror = 1,1,1'
p4461
aS'symMethod = Radial'
p4462
aS'istg = -1'
p4463
aS'resPri = 0'
p4464
aS'dstg = 0'
p4465
aS'sqor = -1'
p4466
aS'sepI = -1'
p4467
aS'sidx = -1'
p4468
aS'attm = 1'
p4469
aS'sym = 38'
p4470
aS'sym = 40'
p4471
aS'sym = 41'
p4472
aS'srfN = srfAttach, 36'
p4473
aS'mass = 0.0799999982'
p4474
aS'shielded = False'
p4475
aS'temp = 321.60151210588236'
p4476
aS'tempExt = 321.74981035000923'
p4477
aS'tempExtUnexp = 4'
p4478
aS'expt = 0.5'
p4479
aS'state = 0'
p4480
aS'attached = True'
p4481
aS'autostrutMode = Off'
p4482
aS'rigidAttachment = False'
p4483
aS'flag = Squad/Flags/rings'
p4484
aS'rTrf = vernierEngine'
p4485
aS'modCost = 0'
p4486
aS'EVENTS'
p4487
a(lp4488
aS'ACTIONS'
p4489
a(lp4490
aS'PARTDATA'
p4491
a(lp4492
aS'MODULE'
p4493
a(lp4494
S'name = ModuleRCSFX'
p4495
aS'isEnabled = True'
p4496
aS'rcsEnabled = True'
p4497
aS'thrustPercentage = 100'
p4498
aS'currentShowToggles = False'
p4499
aS'enableYaw = True'
p4500
aS'enablePitch = True'
p4501
aS'enableRoll = True'
p4502
aS'enableX = True'
p4503
aS'enableY = True'
p4504
aS'enableZ = True'
p4505
aS'useThrottle = False'
p4506
aS'fullThrust = False'
p4507
aS'stagingEnabled = False'
p4508
aS'EVENTS'
p4509
a(lp4510
aS'ACTIONS'
p4511
a(lp4512
S'ToggleAction'
p4513
a(lp4514
S'actionGroup = None'
p4515
aaaS'UPGRADESAPPLIED'
p4516
a(lp4517
aaaS'PART'
p4518
a(lp4519
S'name = vernierEngine'
p4520
aS'cid = 4293572306'
p4521
aS'uid = 1127600154'
p4522
aS'mid = 3392428063'
p4523
aS'launchID = 1'
p4524
aS'parent = 36'
p4525
aS'position = -0.24337482452392578,12.901083946228027,0.24337238073348999'
p4526
aS'rotation = -0.0447901227,0.380054325,-0.108132556,0.917529345'
p4527
aS'mirror = 1,1,1'
p4528
aS'symMethod = Radial'
p4529
aS'istg = -1'
p4530
aS'resPri = 0'
p4531
aS'dstg = 0'
p4532
aS'sqor = -1'
p4533
aS'sepI = -1'
p4534
aS'sidx = -1'
p4535
aS'attm = 1'
p4536
aS'sym = 38'
p4537
aS'sym = 39'
p4538
aS'sym = 41'
p4539
aS'srfN = srfAttach, 36'
p4540
aS'mass = 0.0799999982'
p4541
aS'shielded = False'
p4542
aS'temp = 321.60151210183625'
p4543
aS'tempExt = 321.74981034807871'
p4544
aS'tempExtUnexp = 4'
p4545
aS'expt = 0.5'
p4546
aS'state = 0'
p4547
aS'attached = True'
p4548
aS'autostrutMode = Off'
p4549
aS'rigidAttachment = False'
p4550
aS'flag = Squad/Flags/rings'
p4551
aS'rTrf = vernierEngine'
p4552
aS'modCost = 0'
p4553
aS'EVENTS'
p4554
a(lp4555
aS'ACTIONS'
p4556
a(lp4557
aS'PARTDATA'
p4558
a(lp4559
aS'MODULE'
p4560
a(lp4561
S'name = ModuleRCSFX'
p4562
aS'isEnabled = True'
p4563
aS'rcsEnabled = True'
p4564
aS'thrustPercentage = 100'
p4565
aS'currentShowToggles = False'
p4566
aS'enableYaw = True'
p4567
aS'enablePitch = True'
p4568
aS'enableRoll = True'
p4569
aS'enableX = True'
p4570
aS'enableY = True'
p4571
aS'enableZ = True'
p4572
aS'useThrottle = False'
p4573
aS'fullThrust = False'
p4574
aS'stagingEnabled = False'
p4575
aS'EVENTS'
p4576
a(lp4577
aS'ACTIONS'
p4578
a(lp4579
S'ToggleAction'
p4580
a(lp4581
S'actionGroup = None'
p4582
aaaS'UPGRADESAPPLIED'
p4583
a(lp4584
aaaS'PART'
p4585
a(lp4586
S'name = vernierEngine'
p4587
aS'cid = 4293572274'
p4588
aS'uid = 416256308'
p4589
aS'mid = 3392428063'
p4590
aS'launchID = 1'
p4591
aS'parent = 36'
p4592
aS'position = 0.24337270855903625,12.901083946228027,0.24337264895439148'
p4593
aS'rotation = -0.108132675,0.917530298,-0.0447898656,0.380052239'
p4594
aS'mirror = 1,1,1'
p4595
aS'symMethod = Radial'
p4596
aS'istg = -1'
p4597
aS'resPri = 0'
p4598
aS'dstg = 0'
p4599
aS'sqor = -1'
p4600
aS'sepI = -1'
p4601
aS'sidx = -1'
p4602
aS'attm = 1'
p4603
aS'sym = 38'
p4604
aS'sym = 39'
p4605
aS'sym = 40'
p4606
aS'srfN = srfAttach, 36'
p4607
aS'mass = 0.0799999982'
p4608
aS'shielded = False'
p4609
aS'temp = 321.60151208240234'
p4610
aS'tempExt = 321.74981033880687'
p4611
aS'tempExtUnexp = 4'
p4612
aS'expt = 0.5'
p4613
aS'state = 0'
p4614
aS'attached = True'
p4615
aS'autostrutMode = Off'
p4616
aS'rigidAttachment = False'
p4617
aS'flag = Squad/Flags/rings'
p4618
aS'rTrf = vernierEngine'
p4619
aS'modCost = 0'
p4620
aS'EVENTS'
p4621
a(lp4622
aS'ACTIONS'
p4623
a(lp4624
aS'PARTDATA'
p4625
a(lp4626
aS'MODULE'
p4627
a(lp4628
S'name = ModuleRCSFX'
p4629
aS'isEnabled = True'
p4630
aS'rcsEnabled = True'
p4631
aS'thrustPercentage = 100'
p4632
aS'currentShowToggles = False'
p4633
aS'enableYaw = True'
p4634
aS'enablePitch = True'
p4635
aS'enableRoll = True'
p4636
aS'enableX = True'
p4637
aS'enableY = True'
p4638
aS'enableZ = True'
p4639
aS'useThrottle = False'
p4640
aS'fullThrust = False'
p4641
aS'stagingEnabled = False'
p4642
aS'EVENTS'
p4643
a(lp4644
aS'ACTIONS'
p4645
a(lp4646
S'ToggleAction'
p4647
a(lp4648
S'actionGroup = None'
p4649
aaaS'UPGRADESAPPLIED'
p4650
a(lp4651
aaaS'PART'
p4652
a(lp4653
S'name = strutConnector'
p4654
aS'cid = 4293572432'
p4655
aS'uid = 2758281485'
p4656
aS'mid = 3392428063'
p4657
aS'launchID = 1'
p4658
aS'parent = 33'
p4659
aS'position = 1.0763678550720215,7.7431821823120117,1.0763677358627319'
p4660
aS'rotation = 0.382683486,-1.97537915E-08,-0.923879623,4.76898663E-08'
p4661
aS'mirror = 1,1,1'
p4662
aS'symMethod = Radial'
p4663
aS'istg = -1'
p4664
aS'resPri = 0'
p4665
aS'dstg = 0'
p4666
aS'sqor = -1'
p4667
aS'sepI = -1'
p4668
aS'sidx = -1'
p4669
aS'attm = 1'
p4670
aS'sym = 28'
p4671
aS'sym = 30'
p4672
aS'sym = 32'
p4673
aS'srfN = srfAttach, 33'
p4674
aS'mass = 0.0500000007'
p4675
aS'shielded = False'
p4676
aS'temp = 328.76502291455159'
p4677
aS'tempExt = 330.03211084237097'
p4678
aS'tempExtUnexp = 4'
p4679
aS'expt = 0'
p4680
aS'state = 0'
p4681
aS'attached = True'
p4682
aS'autostrutMode = Off'
p4683
aS'rigidAttachment = False'
p4684
aS'flag = Squad/Flags/rings'
p4685
aS'rTrf = strutConnector'
p4686
aS'modCost = 0'
p4687
aS'EVENTS'
p4688
a(lp4689
aS'ACTIONS'
p4690
a(lp4691
aS'PARTDATA'
p4692
a(lp4693
S'tgt = 4293708086'
p4694
aS'pos = 0.0568448938,-0.219316602,0.00255485624'
p4695
aS'rot = -2.70527101E-10,-4.82516612E-07,0.707107246,0.707106948'
p4696
aS'dir = -0.011275053,-0.967945457,0.25090766'
p4697
aaS'MODULE'
p4698
a(lp4699
S'name = CModuleLinkedMesh'
p4700
aS'isEnabled = True'
p4701
aS'stagingEnabled = True'
p4702
aS'EVENTS'
p4703
a(lp4704
aS'ACTIONS'
p4705
a(lp4706
aS'UPGRADESAPPLIED'
p4707
a(lp4708
aaS'MODULE'
p4709
a(lp4710
S'name = CModuleStrut'
p4711
aS'isEnabled = True'
p4712
aS'stagingEnabled = True'
p4713
aS'EVENTS'
p4714
a(lp4715
aS'ACTIONS'
p4716
a(lp4717
aS'UPGRADESAPPLIED'
p4718
a(lp4719
aaaS'ACTIONGROUPS'
p4720
a(lp4721
S'Stage = True, 15.6799999999998'
p4722
aS'Gear = False, 0'
p4723
aS'Light = False, 0'
p4724
aS'RCS = False, 352.069794921811'
p4725
aS'SAS = True, 12.4999999999998'
p4726
aS'Brakes = False, 0'
p4727
aS'Abort = False, 0'
p4728
aS'Custom01 = False, 0'
p4729
aS'Custom02 = False, 0'
p4730
aS'Custom03 = False, 0'
p4731
aS'Custom04 = False, 0'
p4732
aS'Custom05 = False, 0'
p4733
aS'Custom06 = False, 0'
p4734
aS'Custom07 = False, 0'
p4735
aS'Custom08 = False, 0'
p4736
aS'Custom09 = False, 0'
p4737
aS'Custom10 = False, 0'
p4738
aaS'DISCOVERY'
p4739
a(lp4740
S'state = -1'
p4741
aS'lastObservedTime = 0'
p4742
aS'lifetime = Infinity'
p4743
aS'refTime = Infinity'
p4744
aS'size = 2'
p4745
aaS'FLIGHTPLAN'
p4746
a(lp4747
aS'CTRLSTATE'
p4748
a(lp4749
S'pitch = 0.0155190816'
p4750
aS'yaw = 0.0416197106'
p4751
aS'roll = -0.00769147556'
p4752
aS'trimPitch = 0'
p4753
aS'trimYaw = 0'
p4754
aS'trimRoll = 0'
p4755
aS'mainThrottle = 0'
p4756
aaS'VESSELMODULES'
p4757
a(lp4758
S'FlightIntegrator'
p4759
a(lp4760
aS'CommNetVessel'
p4761
a(lp4762
S'controlState = KerbalFull'
p4763
aS'canComm = True'
p4764
aaaa(lp4765
S'pid = 69ae5d9ac3314f92bb5ce52212bad58f'
p4766
aS'name = Ast. TJP-771'
p4767
aS'type = SpaceObject'
p4768
aS'sit = ORBITING'
p4769
aS'landed = False'
p4770
aS'landedAt ='
p4771
aS'splashed = False'
p4772
aS'met = 327.20979492183352'
p4773
aS'lct = 327.20979492183352'
p4774
aS'lastUT = -1'
p4775
aS'root = 0'
p4776
aS'lat = -0.37062442854930816'
p4777
aS'lon = -178.51254872761754'
p4778
aS'alt = 13832382182.987028'
p4779
aS'hgt = -1'
p4780
aS'nrm = 0,1,0'
p4781
aS'rot = -0.158420354,-0.448530614,0.870694399,0.124957949'
p4782
aS'CoM = 0,0,0'
p4783
aS'stg = 0'
p4784
aS'prst = False'
p4785
aS'ref = 0'
p4786
aS'ctrl = False'
p4787
aS'ORBIT'
p4788
a(lp4789
S'SMA = 13917831061.463621'
p4790
aS'ECC = 0.02377518893682825'
p4791
aS'INC = 0.75564445700557881'
p4792
aS'LPE = 332.68228161315886'
p4793
aS'LAN = 332.3897642162529'
p4794
aS'MNA = 0.2778773244242182'
p4795
aS'EPH = 3624538.9895800781'
p4796
aS'REF = 0'
p4797
aaS'PART'
p4798
a(lp4799
S'name = PotatoRoid'
p4800
aS'cid = 0'
p4801
aS'uid = 880086271'
p4802
aS'mid = 880086271'
p4803
aS'launchID = 0'
p4804
aS'parent = 0'
p4805
aS'position = 0,0,0'
p4806
aS'rotation = 0,0,0,1'
p4807
aS'mirror = 1,1,1'
p4808
aS'symMethod = Radial'
p4809
aS'istg = 0'
p4810
aS'resPri = 0'
p4811
aS'dstg = 0'
p4812
aS'sqor = 0'
p4813
aS'sepI = 0'
p4814
aS'sidx = 0'
p4815
aS'attm = 0'
p4816
aS'srfN = None, -1'
p4817
aS'mass = 150'
p4818
aS'shielded = False'
p4819
aS'temp = -1'
p4820
aS'tempExt = 0'
p4821
aS'tempExtUnexp = 0'
p4822
aS'expt = 0.100000001'
p4823
aS'state = 0'
p4824
aS'attached = True'
p4825
aS'autostrutMode = Off'
p4826
aS'rigidAttachment = False'
p4827
aS'flag ='
p4828
aS'rTrf ='
p4829
aS'modCost = 0'
p4830
aaS'ACTIONGROUPS'
p4831
a(lp4832
aS'DISCOVERY'
p4833
a(lp4834
S'state = 1'
p4835
aS'lastObservedTime = 327.20979492183352'
p4836
aS'lifetime = 193789.80560302734'
p4837
aS'refTime = 1728000'
p4838
aS'size = 2'
p4839
aaS'FLIGHTPLAN'
p4840
a(lp4841
aS'CTRLSTATE'
p4842
a(lp4843
aS'VESSELMODULES'
p4844
a(lp4845
S'FlightIntegrator'
p4846
a(lp4847
aaa(lp4848
(lp4849
S'name = Jebediah Kerman'
p4850
aS'gender = Male'
p4851
aS'type = Crew'
p4852
aS'trait = Pilot'
p4853
aS'brave = 0.5'
p4854
aS'dumb = 0.5'
p4855
aS'badS = True'
p4856
aS'veteran = True'
p4857
aS'tour = False'
p4858
aS'state = Missing'
p4859
aS'inactive = False'
p4860
aS'inactiveTimeEnd = 0'
p4861
aS'gExperienced = 0'
p4862
aS'outDueToG = False'
p4863
aS'ToD = 7671.4497949217021'
p4864
aS'idx = 0'
p4865
aS'extraXP = 0'
p4866
aS'CAREER_LOG'
p4867
a(lp4868
S'flight = 0'
p4869
aaS'FLIGHT_LOG'
p4870
a(lp4871
S'flight = 0'
p4872
aS'0 = Flight,Kerbin'
p4873
aS'0 = Suborbit,Kerbin'
p4874
aS'0 = Orbit,Kerbin'
p4875
aaa(lp4876
S'name = Bill Kerman'
p4877
aS'gender = Male'
p4878
aS'type = Crew'
p4879
aS'trait = Engineer'
p4880
aS'brave = 0.5'
p4881
aS'dumb = 0.800000012'
p4882
aS'badS = False'
p4883
aS'veteran = True'
p4884
aS'tour = False'
p4885
aS'state = Available'
p4886
aS'inactive = False'
p4887
aS'inactiveTimeEnd = 0'
p4888
aS'gExperienced = 0'
p4889
aS'outDueToG = False'
p4890
aS'ToD = 0'
p4891
aS'idx = -1'
p4892
aS'extraXP = 0'
p4893
aS'CAREER_LOG'
p4894
a(lp4895
S'flight = 0'
p4896
aaS'FLIGHT_LOG'
p4897
a(lp4898
S'flight = 0'
p4899
aaa(lp4900
S'name = Bob Kerman'
p4901
aS'gender = Male'
p4902
aS'type = Crew'
p4903
aS'trait = Scientist'
p4904
aS'brave = 0.300000012'
p4905
aS'dumb = 0.100000001'
p4906
aS'badS = False'
p4907
aS'veteran = True'
p4908
aS'tour = False'
p4909
aS'state = Available'
p4910
aS'inactive = False'
p4911
aS'inactiveTimeEnd = 0'
p4912
aS'gExperienced = 0'
p4913
aS'outDueToG = False'
p4914
aS'ToD = 0'
p4915
aS'idx = -1'
p4916
aS'extraXP = 0'
p4917
aS'CAREER_LOG'
p4918
a(lp4919
S'flight = 0'
p4920
aaS'FLIGHT_LOG'
p4921
a(lp4922
S'flight = 0'
p4923
aaa(lp4924
S'name = Valentina Kerman'
p4925
aS'gender = Female'
p4926
aS'type = Crew'
p4927
aS'trait = Pilot'
p4928
aS'brave = 0.550000012'
p4929
aS'dumb = 0.400000006'
p4930
aS'badS = True'
p4931
aS'veteran = True'
p4932
aS'tour = False'
p4933
aS'state = Missing'
p4934
aS'inactive = False'
p4935
aS'inactiveTimeEnd = 0'
p4936
aS'gExperienced = 0'
p4937
aS'outDueToG = False'
p4938
aS'ToD = 7736.311318359335'
p4939
aS'idx = 0'
p4940
aS'extraXP = 0'
p4941
aS'CAREER_LOG'
p4942
a(lp4943
S'flight = 0'
p4944
aaS'FLIGHT_LOG'
p4945
a(lp4946
S'flight = 0'
p4947
aS'0 = Flight,Kerbin'
p4948
aS'0 = Suborbit,Kerbin'
p4949
aS'0 = Orbit,Kerbin'
p4950
aaa(lp4951
S'3779b5ac7d274130b817ee2d89d43161'
p4952
aS'6f3ecd6435d14682b83c6220fc031960'
p4953
aS'3779b5ac7d274130b817ee2d89d43161'
p4954
aS'2db1e2d3db0f40efa147b7f0fdb62ec4'
p4955
a(dp4956
S'Bob Kerman'
p4957
(lp4958
S'184.68.166.106'
p4959
aS'24.87.29.11'
p4960
asS'2db1e2d3db0f40efa147b7f0fdb62ec4'
p4961
(lp4962
S'184.68.166.106'
p4963
asS'6b06b1a98db44bc59efd70e7ec2ae764'
p4964
(lp4965
g4959
ag4960
asS'52b4ca35971241c29bc7a327a10b4e65'
p4966
(lp4967
g4959
ag4960
asS'6f3ecd6435d14682b83c6220fc031960'
p4968
(lp4969
g4959
aS'24.87.29.11'
p4970
asS'472146fcf45b490e8bafe4b750581fec'
p4971
(lp4972
g4959
ag4960
asS'3e84ad55c8004a0c9dd7eb4faa238c5f'
p4973
(lp4974
g4959
ag4960
asS'4bef8b23e87c4ea8902c725fc12f4fed'
p4975
(lp4976
g4959
ag4960
asS'Jebediah Kerman'
p4977
(lp4978
S'24.87.29.11'
p4979
ag4963
asS'3779b5ac7d274130b817ee2d89d43161'
p4980
(lp4981
S'184.68.166.106'
p4982
asS'31c439fdb9cd4adbaeb365c3d1f9fee0'
p4983
(lp4984
g4959
ag4960
asS'7667eb97db1842f3858bc1d9d4a6bea0'
p4985
(lp4986
g4959
ag4960
asS'1444fe1489ed4c369592a76e36df74ae'
p4987
(lp4988
g4959
ag4960
asS'9d539250d7334504be974aa8b35b5b25'
p4989
(lp4990
g4959
ag4960
asS'69ae5d9ac3314f92bb5ce52212bad58f'
p4991
(lp4992
g4963
aS'24.87.29.11'
p4993
asS'dcf5fdadbc964a05b4c59c6db2d8bc0f'
p4994
(lp4995
g4959
ag4960
asS'f7afdfa704fe4daab4ae5e0a7a76153b'
p4996
(lp4997
g4959
ag4960
asS'Valentina Kerman'
p4998
(lp4999
S'184.68.166.106'
p5000
aS'24.87.29.11'
p5001
asS'f6c8f15c405e4b76bd01b907fa35d5a6'
p5002
(lp5003
g4959
ag4960
asS'Bill Kerman'
p5004
(lp5005
g4959
ag4960
asS'5d2d555fe0bf4fdaa02ee8289462491c'
p5006
(lp5007
g4959
ag4960
asS'7827c616f289427fbaba6d8388654544'
p5008
(lp5009
g4959
ag4960
ast.